
index.exe:     file format pei-x86-64


Disassembly of section .text:

0000000140001000 <__mingw_invalidParameterHandler>:
   140001000:	c3                   	ret
   140001001:	66 66 2e 0f 1f 84 00 	data16 cs nopw 0x0(%rax,%rax,1)
   140001008:	00 00 00 00 
   14000100c:	0f 1f 40 00          	nopl   0x0(%rax)

0000000140001010 <pre_c_init>:
   140001010:	48 83 ec 28          	sub    $0x28,%rsp
   140001014:	48 8b 05 75 87 00 00 	mov    0x8775(%rip),%rax        # 140009790 <.refptr.__mingw_initltsdrot_force>
   14000101b:	31 c9                	xor    %ecx,%ecx
   14000101d:	c7 00 01 00 00 00    	movl   $0x1,(%rax)
   140001023:	48 8b 05 76 87 00 00 	mov    0x8776(%rip),%rax        # 1400097a0 <.refptr.__mingw_initltsdyn_force>
   14000102a:	c7 00 01 00 00 00    	movl   $0x1,(%rax)
   140001030:	48 8b 05 79 87 00 00 	mov    0x8779(%rip),%rax        # 1400097b0 <.refptr.__mingw_initltssuo_force>
   140001037:	c7 00 01 00 00 00    	movl   $0x1,(%rax)
   14000103d:	48 8b 05 cc 86 00 00 	mov    0x86cc(%rip),%rax        # 140009710 <.refptr.__ImageBase>
   140001044:	66 81 38 4d 5a       	cmpw   $0x5a4d,(%rax)
   140001049:	75 0f                	jne    14000105a <pre_c_init+0x4a>
   14000104b:	48 63 50 3c          	movslq 0x3c(%rax),%rdx
   14000104f:	48 01 d0             	add    %rdx,%rax
   140001052:	81 38 50 45 00 00    	cmpl   $0x4550,(%rax)
   140001058:	74 66                	je     1400010c0 <pre_c_init+0xb0>
   14000105a:	48 8b 05 1f 87 00 00 	mov    0x871f(%rip),%rax        # 140009780 <.refptr.__mingw_app_type>
   140001061:	89 0d a5 bf 00 00    	mov    %ecx,0xbfa5(%rip)        # 14000d00c <managedapp>
   140001067:	8b 00                	mov    (%rax),%eax
   140001069:	85 c0                	test   %eax,%eax
   14000106b:	74 43                	je     1400010b0 <pre_c_init+0xa0>
   14000106d:	b9 02 00 00 00       	mov    $0x2,%ecx
   140001072:	e8 e1 6a 00 00       	call   140007b58 <__set_app_type>
   140001077:	e8 74 64 00 00       	call   1400074f0 <__p__fmode>
   14000107c:	48 8b 15 dd 87 00 00 	mov    0x87dd(%rip),%rdx        # 140009860 <.refptr._fmode>
   140001083:	8b 12                	mov    (%rdx),%edx
   140001085:	89 10                	mov    %edx,(%rax)
   140001087:	e8 74 64 00 00       	call   140007500 <__p__commode>
   14000108c:	48 8b 15 ad 87 00 00 	mov    0x87ad(%rip),%rdx        # 140009840 <.refptr._commode>
   140001093:	8b 12                	mov    (%rdx),%edx
   140001095:	89 10                	mov    %edx,(%rax)
   140001097:	e8 04 05 00 00       	call   1400015a0 <_setargv>
   14000109c:	48 8b 05 4d 86 00 00 	mov    0x864d(%rip),%rax        # 1400096f0 <.refptr._MINGW_INSTALL_DEBUG_MATHERR>
   1400010a3:	83 38 01             	cmpl   $0x1,(%rax)
   1400010a6:	74 50                	je     1400010f8 <pre_c_init+0xe8>
   1400010a8:	31 c0                	xor    %eax,%eax
   1400010aa:	48 83 c4 28          	add    $0x28,%rsp
   1400010ae:	c3                   	ret
   1400010af:	90                   	nop
   1400010b0:	b9 01 00 00 00       	mov    $0x1,%ecx
   1400010b5:	e8 9e 6a 00 00       	call   140007b58 <__set_app_type>
   1400010ba:	eb bb                	jmp    140001077 <pre_c_init+0x67>
   1400010bc:	0f 1f 40 00          	nopl   0x0(%rax)
   1400010c0:	0f b7 50 18          	movzwl 0x18(%rax),%edx
   1400010c4:	66 81 fa 0b 01       	cmp    $0x10b,%dx
   1400010c9:	74 45                	je     140001110 <pre_c_init+0x100>
   1400010cb:	66 81 fa 0b 02       	cmp    $0x20b,%dx
   1400010d0:	75 88                	jne    14000105a <pre_c_init+0x4a>
   1400010d2:	83 b8 84 00 00 00 0e 	cmpl   $0xe,0x84(%rax)
   1400010d9:	0f 86 7b ff ff ff    	jbe    14000105a <pre_c_init+0x4a>
   1400010df:	8b 90 f8 00 00 00    	mov    0xf8(%rax),%edx
   1400010e5:	31 c9                	xor    %ecx,%ecx
   1400010e7:	85 d2                	test   %edx,%edx
   1400010e9:	0f 95 c1             	setne  %cl
   1400010ec:	e9 69 ff ff ff       	jmp    14000105a <pre_c_init+0x4a>
   1400010f1:	0f 1f 80 00 00 00 00 	nopl   0x0(%rax)
   1400010f8:	48 8b 0d 81 87 00 00 	mov    0x8781(%rip),%rcx        # 140009880 <.refptr._matherr>
   1400010ff:	e8 0c 0c 00 00       	call   140001d10 <__mingw_setusermatherr>
   140001104:	31 c0                	xor    %eax,%eax
   140001106:	48 83 c4 28          	add    $0x28,%rsp
   14000110a:	c3                   	ret
   14000110b:	0f 1f 44 00 00       	nopl   0x0(%rax,%rax,1)
   140001110:	83 78 74 0e          	cmpl   $0xe,0x74(%rax)
   140001114:	0f 86 40 ff ff ff    	jbe    14000105a <pre_c_init+0x4a>
   14000111a:	44 8b 80 e8 00 00 00 	mov    0xe8(%rax),%r8d
   140001121:	31 c9                	xor    %ecx,%ecx
   140001123:	45 85 c0             	test   %r8d,%r8d
   140001126:	0f 95 c1             	setne  %cl
   140001129:	e9 2c ff ff ff       	jmp    14000105a <pre_c_init+0x4a>
   14000112e:	66 90                	xchg   %ax,%ax

0000000140001130 <pre_cpp_init>:
   140001130:	48 83 ec 38          	sub    $0x38,%rsp
   140001134:	48 8b 05 55 87 00 00 	mov    0x8755(%rip),%rax        # 140009890 <.refptr._newmode>
   14000113b:	4c 8d 05 d6 be 00 00 	lea    0xbed6(%rip),%r8        # 14000d018 <envp>
   140001142:	48 8d 15 d7 be 00 00 	lea    0xbed7(%rip),%rdx        # 14000d020 <argv>
   140001149:	48 8d 0d d8 be 00 00 	lea    0xbed8(%rip),%rcx        # 14000d028 <argc>
   140001150:	8b 00                	mov    (%rax),%eax
   140001152:	89 05 ac be 00 00    	mov    %eax,0xbeac(%rip)        # 14000d004 <startinfo>
   140001158:	48 8b 05 f1 86 00 00 	mov    0x86f1(%rip),%rax        # 140009850 <.refptr._dowildcard>
   14000115f:	44 8b 08             	mov    (%rax),%r9d
   140001162:	48 8d 05 9b be 00 00 	lea    0xbe9b(%rip),%rax        # 14000d004 <startinfo>
   140001169:	48 89 44 24 20       	mov    %rax,0x20(%rsp)
   14000116e:	e8 d5 69 00 00       	call   140007b48 <__getmainargs>
   140001173:	90                   	nop
   140001174:	48 83 c4 38          	add    $0x38,%rsp
   140001178:	c3                   	ret
   140001179:	0f 1f 80 00 00 00 00 	nopl   0x0(%rax)

0000000140001180 <__tmainCRTStartup>:
   140001180:	41 54                	push   %r12
   140001182:	55                   	push   %rbp
   140001183:	57                   	push   %rdi
   140001184:	56                   	push   %rsi
   140001185:	53                   	push   %rbx
   140001186:	48 83 ec 20          	sub    $0x20,%rsp
   14000118a:	48 8b 1d 3f 86 00 00 	mov    0x863f(%rip),%rbx        # 1400097d0 <.refptr.__native_startup_lock>
   140001191:	48 8b 2d 70 d0 00 00 	mov    0xd070(%rip),%rbp        # 14000e208 <__imp_Sleep>
   140001198:	31 ff                	xor    %edi,%edi
   14000119a:	65 48 8b 04 25 30 00 	mov    %gs:0x30,%rax
   1400011a1:	00 00 
   1400011a3:	48 8b 70 08          	mov    0x8(%rax),%rsi
   1400011a7:	eb 17                	jmp    1400011c0 <__tmainCRTStartup+0x40>
   1400011a9:	0f 1f 80 00 00 00 00 	nopl   0x0(%rax)
   1400011b0:	48 39 c6             	cmp    %rax,%rsi
   1400011b3:	0f 84 67 01 00 00    	je     140001320 <__tmainCRTStartup+0x1a0>
   1400011b9:	b9 e8 03 00 00       	mov    $0x3e8,%ecx
   1400011be:	ff d5                	call   *%rbp
   1400011c0:	48 89 f8             	mov    %rdi,%rax
   1400011c3:	f0 48 0f b1 33       	lock cmpxchg %rsi,(%rbx)
   1400011c8:	48 85 c0             	test   %rax,%rax
   1400011cb:	75 e3                	jne    1400011b0 <__tmainCRTStartup+0x30>
   1400011cd:	48 8b 35 0c 86 00 00 	mov    0x860c(%rip),%rsi        # 1400097e0 <.refptr.__native_startup_state>
   1400011d4:	31 ff                	xor    %edi,%edi
   1400011d6:	8b 06                	mov    (%rsi),%eax
   1400011d8:	83 f8 01             	cmp    $0x1,%eax
   1400011db:	0f 84 56 01 00 00    	je     140001337 <__tmainCRTStartup+0x1b7>
   1400011e1:	8b 06                	mov    (%rsi),%eax
   1400011e3:	85 c0                	test   %eax,%eax
   1400011e5:	0f 84 b5 01 00 00    	je     1400013a0 <__tmainCRTStartup+0x220>
   1400011eb:	c7 05 13 be 00 00 01 	movl   $0x1,0xbe13(%rip)        # 14000d008 <has_cctor>
   1400011f2:	00 00 00 
   1400011f5:	8b 06                	mov    (%rsi),%eax
   1400011f7:	83 f8 01             	cmp    $0x1,%eax
   1400011fa:	0f 84 4c 01 00 00    	je     14000134c <__tmainCRTStartup+0x1cc>
   140001200:	85 ff                	test   %edi,%edi
   140001202:	0f 84 65 01 00 00    	je     14000136d <__tmainCRTStartup+0x1ed>
   140001208:	48 8b 05 31 85 00 00 	mov    0x8531(%rip),%rax        # 140009740 <.refptr.__dyn_tls_init_callback>
   14000120f:	48 8b 00             	mov    (%rax),%rax
   140001212:	48 85 c0             	test   %rax,%rax
   140001215:	74 0c                	je     140001223 <__tmainCRTStartup+0xa3>
   140001217:	45 31 c0             	xor    %r8d,%r8d
   14000121a:	ba 02 00 00 00       	mov    $0x2,%edx
   14000121f:	31 c9                	xor    %ecx,%ecx
   140001221:	ff d0                	call   *%rax
   140001223:	e8 48 07 00 00       	call   140001970 <_pei386_runtime_relocator>
   140001228:	48 8b 0d 41 86 00 00 	mov    0x8641(%rip),%rcx        # 140009870 <.refptr._gnu_exception_handler>
   14000122f:	ff 15 cb cf 00 00    	call   *0xcfcb(%rip)        # 14000e200 <__imp_SetUnhandledExceptionFilter>
   140001235:	48 8b 15 84 85 00 00 	mov    0x8584(%rip),%rdx        # 1400097c0 <.refptr.__mingw_oldexcpt_handler>
   14000123c:	48 8d 0d bd fd ff ff 	lea    -0x243(%rip),%rcx        # 140001000 <__mingw_invalidParameterHandler>
   140001243:	48 89 02             	mov    %rax,(%rdx)
   140001246:	e8 a5 63 00 00       	call   1400075f0 <_set_invalid_parameter_handler>
   14000124b:	e8 30 05 00 00       	call   140001780 <_fpreset>
   140001250:	8b 1d d2 bd 00 00    	mov    0xbdd2(%rip),%ebx        # 14000d028 <argc>
   140001256:	8d 7b 01             	lea    0x1(%rbx),%edi
   140001259:	48 63 ff             	movslq %edi,%rdi
   14000125c:	48 c1 e7 03          	shl    $0x3,%rdi
   140001260:	48 89 f9             	mov    %rdi,%rcx
   140001263:	e8 78 69 00 00       	call   140007be0 <malloc>
   140001268:	4c 8b 25 b1 bd 00 00 	mov    0xbdb1(%rip),%r12        # 14000d020 <argv>
   14000126f:	48 89 c5             	mov    %rax,%rbp
   140001272:	85 db                	test   %ebx,%ebx
   140001274:	0f 8e 46 01 00 00    	jle    1400013c0 <__tmainCRTStartup+0x240>
   14000127a:	48 83 ef 08          	sub    $0x8,%rdi
   14000127e:	31 db                	xor    %ebx,%ebx
   140001280:	49 8b 0c 1c          	mov    (%r12,%rbx,1),%rcx
   140001284:	e8 7f 69 00 00       	call   140007c08 <strlen>
   140001289:	48 8d 70 01          	lea    0x1(%rax),%rsi
   14000128d:	48 89 f1             	mov    %rsi,%rcx
   140001290:	e8 4b 69 00 00       	call   140007be0 <malloc>
   140001295:	49 89 f0             	mov    %rsi,%r8
   140001298:	48 89 44 1d 00       	mov    %rax,0x0(%rbp,%rbx,1)
   14000129d:	49 8b 14 1c          	mov    (%r12,%rbx,1),%rdx
   1400012a1:	48 89 c1             	mov    %rax,%rcx
   1400012a4:	48 83 c3 08          	add    $0x8,%rbx
   1400012a8:	e8 3b 69 00 00       	call   140007be8 <memcpy>
   1400012ad:	48 39 df             	cmp    %rbx,%rdi
   1400012b0:	75 ce                	jne    140001280 <__tmainCRTStartup+0x100>
   1400012b2:	48 01 ef             	add    %rbp,%rdi
   1400012b5:	48 c7 07 00 00 00 00 	movq   $0x0,(%rdi)
   1400012bc:	48 89 2d 5d bd 00 00 	mov    %rbp,0xbd5d(%rip)        # 14000d020 <argv>
   1400012c3:	e8 b8 02 00 00       	call   140001580 <__main>
   1400012c8:	48 8b 05 81 84 00 00 	mov    0x8481(%rip),%rax        # 140009750 <.refptr.__imp___initenv>
   1400012cf:	4c 8b 05 42 bd 00 00 	mov    0xbd42(%rip),%r8        # 14000d018 <envp>
   1400012d6:	8b 0d 4c bd 00 00    	mov    0xbd4c(%rip),%ecx        # 14000d028 <argc>
   1400012dc:	48 8b 00             	mov    (%rax),%rax
   1400012df:	4c 89 00             	mov    %r8,(%rax)
   1400012e2:	48 8b 15 37 bd 00 00 	mov    0xbd37(%rip),%rdx        # 14000d020 <argv>
   1400012e9:	e8 b6 01 00 00       	call   1400014a4 <main>
   1400012ee:	8b 0d 18 bd 00 00    	mov    0xbd18(%rip),%ecx        # 14000d00c <managedapp>
   1400012f4:	89 05 16 bd 00 00    	mov    %eax,0xbd16(%rip)        # 14000d010 <mainret>
   1400012fa:	85 c9                	test   %ecx,%ecx
   1400012fc:	0f 84 c6 00 00 00    	je     1400013c8 <__tmainCRTStartup+0x248>
   140001302:	8b 15 00 bd 00 00    	mov    0xbd00(%rip),%edx        # 14000d008 <has_cctor>
   140001308:	85 d2                	test   %edx,%edx
   14000130a:	74 74                	je     140001380 <__tmainCRTStartup+0x200>
   14000130c:	48 83 c4 20          	add    $0x20,%rsp
   140001310:	5b                   	pop    %rbx
   140001311:	5e                   	pop    %rsi
   140001312:	5f                   	pop    %rdi
   140001313:	5d                   	pop    %rbp
   140001314:	41 5c                	pop    %r12
   140001316:	c3                   	ret
   140001317:	66 0f 1f 84 00 00 00 	nopw   0x0(%rax,%rax,1)
   14000131e:	00 00 
   140001320:	48 8b 35 b9 84 00 00 	mov    0x84b9(%rip),%rsi        # 1400097e0 <.refptr.__native_startup_state>
   140001327:	bf 01 00 00 00       	mov    $0x1,%edi
   14000132c:	8b 06                	mov    (%rsi),%eax
   14000132e:	83 f8 01             	cmp    $0x1,%eax
   140001331:	0f 85 aa fe ff ff    	jne    1400011e1 <__tmainCRTStartup+0x61>
   140001337:	b9 1f 00 00 00       	mov    $0x1f,%ecx
   14000133c:	e8 27 68 00 00       	call   140007b68 <_amsg_exit>
   140001341:	8b 06                	mov    (%rsi),%eax
   140001343:	83 f8 01             	cmp    $0x1,%eax
   140001346:	0f 85 b4 fe ff ff    	jne    140001200 <__tmainCRTStartup+0x80>
   14000134c:	48 8b 15 bd 84 00 00 	mov    0x84bd(%rip),%rdx        # 140009810 <.refptr.__xc_z>
   140001353:	48 8b 0d a6 84 00 00 	mov    0x84a6(%rip),%rcx        # 140009800 <.refptr.__xc_a>
   14000135a:	e8 21 68 00 00       	call   140007b80 <_initterm>
   14000135f:	c7 06 02 00 00 00    	movl   $0x2,(%rsi)
   140001365:	85 ff                	test   %edi,%edi
   140001367:	0f 85 9b fe ff ff    	jne    140001208 <__tmainCRTStartup+0x88>
   14000136d:	31 c0                	xor    %eax,%eax
   14000136f:	48 87 03             	xchg   %rax,(%rbx)
   140001372:	e9 91 fe ff ff       	jmp    140001208 <__tmainCRTStartup+0x88>
   140001377:	66 0f 1f 84 00 00 00 	nopw   0x0(%rax,%rax,1)
   14000137e:	00 00 
   140001380:	e8 eb 67 00 00       	call   140007b70 <_cexit>
   140001385:	8b 05 85 bc 00 00    	mov    0xbc85(%rip),%eax        # 14000d010 <mainret>
   14000138b:	48 83 c4 20          	add    $0x20,%rsp
   14000138f:	5b                   	pop    %rbx
   140001390:	5e                   	pop    %rsi
   140001391:	5f                   	pop    %rdi
   140001392:	5d                   	pop    %rbp
   140001393:	41 5c                	pop    %r12
   140001395:	c3                   	ret
   140001396:	66 2e 0f 1f 84 00 00 	cs nopw 0x0(%rax,%rax,1)
   14000139d:	00 00 00 
   1400013a0:	48 8b 15 89 84 00 00 	mov    0x8489(%rip),%rdx        # 140009830 <.refptr.__xi_z>
   1400013a7:	48 8b 0d 72 84 00 00 	mov    0x8472(%rip),%rcx        # 140009820 <.refptr.__xi_a>
   1400013ae:	c7 06 01 00 00 00    	movl   $0x1,(%rsi)
   1400013b4:	e8 c7 67 00 00       	call   140007b80 <_initterm>
   1400013b9:	e9 37 fe ff ff       	jmp    1400011f5 <__tmainCRTStartup+0x75>
   1400013be:	66 90                	xchg   %ax,%ax
   1400013c0:	48 89 c7             	mov    %rax,%rdi
   1400013c3:	e9 ed fe ff ff       	jmp    1400012b5 <__tmainCRTStartup+0x135>
   1400013c8:	89 c1                	mov    %eax,%ecx
   1400013ca:	e8 e1 67 00 00       	call   140007bb0 <exit>
   1400013cf:	90                   	nop

00000001400013d0 <WinMainCRTStartup>:
   1400013d0:	48 83 ec 28          	sub    $0x28,%rsp

00000001400013d4 <.l_startw>:
   1400013d4:	48 8b 05 a5 83 00 00 	mov    0x83a5(%rip),%rax        # 140009780 <.refptr.__mingw_app_type>
   1400013db:	c7 00 01 00 00 00    	movl   $0x1,(%rax)
   1400013e1:	e8 9a fd ff ff       	call   140001180 <__tmainCRTStartup>
   1400013e6:	90                   	nop

00000001400013e7 <.l_endw>:
   1400013e7:	90                   	nop
   1400013e8:	48 83 c4 28          	add    $0x28,%rsp
   1400013ec:	c3                   	ret
   1400013ed:	0f 1f 00             	nopl   (%rax)

00000001400013f0 <mainCRTStartup>:
   1400013f0:	48 83 ec 28          	sub    $0x28,%rsp

00000001400013f4 <.l_start>:
   1400013f4:	48 8b 05 85 83 00 00 	mov    0x8385(%rip),%rax        # 140009780 <.refptr.__mingw_app_type>
   1400013fb:	c7 00 00 00 00 00    	movl   $0x0,(%rax)
   140001401:	e8 7a fd ff ff       	call   140001180 <__tmainCRTStartup>
   140001406:	90                   	nop

0000000140001407 <.l_end>:
   140001407:	90                   	nop
   140001408:	48 83 c4 28          	add    $0x28,%rsp
   14000140c:	c3                   	ret
   14000140d:	0f 1f 00             	nopl   (%rax)

0000000140001410 <atexit>:
   140001410:	48 83 ec 28          	sub    $0x28,%rsp
   140001414:	e8 77 67 00 00       	call   140007b90 <_onexit>
   140001419:	48 83 f8 01          	cmp    $0x1,%rax
   14000141d:	19 c0                	sbb    %eax,%eax
   14000141f:	48 83 c4 28          	add    $0x28,%rsp
   140001423:	c3                   	ret
   140001424:	90                   	nop
   140001425:	90                   	nop
   140001426:	90                   	nop
   140001427:	90                   	nop
   140001428:	90                   	nop
   140001429:	90                   	nop
   14000142a:	90                   	nop
   14000142b:	90                   	nop
   14000142c:	90                   	nop
   14000142d:	90                   	nop
   14000142e:	90                   	nop
   14000142f:	90                   	nop

0000000140001430 <__gcc_register_frame>:
   140001430:	48 8d 0d 09 00 00 00 	lea    0x9(%rip),%rcx        # 140001440 <__gcc_deregister_frame>
   140001437:	e9 d4 ff ff ff       	jmp    140001410 <atexit>
   14000143c:	0f 1f 40 00          	nopl   0x0(%rax)

0000000140001440 <__gcc_deregister_frame>:
   140001440:	c3                   	ret
   140001441:	90                   	nop
   140001442:	90                   	nop
   140001443:	90                   	nop
   140001444:	90                   	nop
   140001445:	90                   	nop
   140001446:	90                   	nop
   140001447:	90                   	nop
   140001448:	90                   	nop
   140001449:	90                   	nop
   14000144a:	90                   	nop
   14000144b:	90                   	nop
   14000144c:	90                   	nop
   14000144d:	90                   	nop
   14000144e:	90                   	nop
   14000144f:	90                   	nop

0000000140001450 <printf>:
   140001450:	55                   	push   %rbp
   140001451:	53                   	push   %rbx
   140001452:	48 83 ec 38          	sub    $0x38,%rsp
   140001456:	48 8d 6c 24 30       	lea    0x30(%rsp),%rbp
   14000145b:	48 89 4d 20          	mov    %rcx,0x20(%rbp)
   14000145f:	48 89 55 28          	mov    %rdx,0x28(%rbp)
   140001463:	4c 89 45 30          	mov    %r8,0x30(%rbp)
   140001467:	4c 89 4d 38          	mov    %r9,0x38(%rbp)
   14000146b:	48 8d 45 28          	lea    0x28(%rbp),%rax
   14000146f:	48 89 45 f0          	mov    %rax,-0x10(%rbp)
   140001473:	48 8b 5d f0          	mov    -0x10(%rbp),%rbx
   140001477:	b9 01 00 00 00       	mov    $0x1,%ecx
   14000147c:	48 8b 05 3d 6c 00 00 	mov    0x6c3d(%rip),%rax        # 1400080c0 <__imp___acrt_iob_func>
   140001483:	ff d0                	call   *%rax
   140001485:	48 89 c1             	mov    %rax,%rcx
   140001488:	48 8b 45 20          	mov    0x20(%rbp),%rax
   14000148c:	49 89 d8             	mov    %rbx,%r8
   14000148f:	48 89 c2             	mov    %rax,%rdx
   140001492:	e8 f9 10 00 00       	call   140002590 <__mingw_vfprintf>
   140001497:	89 45 fc             	mov    %eax,-0x4(%rbp)
   14000149a:	8b 45 fc             	mov    -0x4(%rbp),%eax
   14000149d:	48 83 c4 38          	add    $0x38,%rsp
   1400014a1:	5b                   	pop    %rbx
   1400014a2:	5d                   	pop    %rbp
   1400014a3:	c3                   	ret

00000001400014a4 <main>:
   1400014a4:	55                   	push   %rbp
   1400014a5:	48 89 e5             	mov    %rsp,%rbp
   1400014a8:	48 83 ec 20          	sub    $0x20,%rsp
   1400014ac:	e8 cf 00 00 00       	call   140001580 <__main>
   1400014b1:	48 8d 05 48 7b 00 00 	lea    0x7b48(%rip),%rax        # 140009000 <.rdata>
   1400014b8:	48 89 c1             	mov    %rax,%rcx
   1400014bb:	e8 90 ff ff ff       	call   140001450 <printf>
   1400014c0:	b8 00 00 00 00       	mov    $0x0,%eax
   1400014c5:	48 83 c4 20          	add    $0x20,%rsp
   1400014c9:	5d                   	pop    %rbp
   1400014ca:	c3                   	ret
   1400014cb:	90                   	nop
   1400014cc:	90                   	nop
   1400014cd:	90                   	nop
   1400014ce:	90                   	nop
   1400014cf:	90                   	nop

00000001400014d0 <__do_global_dtors>:
   1400014d0:	48 83 ec 28          	sub    $0x28,%rsp
   1400014d4:	48 8b 05 25 6b 00 00 	mov    0x6b25(%rip),%rax        # 140008000 <__data_start__>
   1400014db:	48 8b 00             	mov    (%rax),%rax
   1400014de:	48 85 c0             	test   %rax,%rax
   1400014e1:	74 22                	je     140001505 <__do_global_dtors+0x35>
   1400014e3:	0f 1f 44 00 00       	nopl   0x0(%rax,%rax,1)
   1400014e8:	ff d0                	call   *%rax
   1400014ea:	48 8b 05 0f 6b 00 00 	mov    0x6b0f(%rip),%rax        # 140008000 <__data_start__>
   1400014f1:	48 8d 50 08          	lea    0x8(%rax),%rdx
   1400014f5:	48 8b 40 08          	mov    0x8(%rax),%rax
   1400014f9:	48 89 15 00 6b 00 00 	mov    %rdx,0x6b00(%rip)        # 140008000 <__data_start__>
   140001500:	48 85 c0             	test   %rax,%rax
   140001503:	75 e3                	jne    1400014e8 <__do_global_dtors+0x18>
   140001505:	48 83 c4 28          	add    $0x28,%rsp
   140001509:	c3                   	ret
   14000150a:	66 0f 1f 44 00 00    	nopw   0x0(%rax,%rax,1)

0000000140001510 <__do_global_ctors>:
   140001510:	56                   	push   %rsi
   140001511:	53                   	push   %rbx
   140001512:	48 83 ec 28          	sub    $0x28,%rsp
   140001516:	48 8b 15 e3 81 00 00 	mov    0x81e3(%rip),%rdx        # 140009700 <.refptr.__CTOR_LIST__>
   14000151d:	48 8b 02             	mov    (%rdx),%rax
   140001520:	89 c1                	mov    %eax,%ecx
   140001522:	83 f8 ff             	cmp    $0xffffffff,%eax
   140001525:	74 39                	je     140001560 <__do_global_ctors+0x50>
   140001527:	85 c9                	test   %ecx,%ecx
   140001529:	74 20                	je     14000154b <__do_global_ctors+0x3b>
   14000152b:	89 c8                	mov    %ecx,%eax
   14000152d:	83 e9 01             	sub    $0x1,%ecx
   140001530:	48 8d 1c c2          	lea    (%rdx,%rax,8),%rbx
   140001534:	48 29 c8             	sub    %rcx,%rax
   140001537:	48 8d 74 c2 f8       	lea    -0x8(%rdx,%rax,8),%rsi
   14000153c:	0f 1f 40 00          	nopl   0x0(%rax)
   140001540:	ff 13                	call   *(%rbx)
   140001542:	48 83 eb 08          	sub    $0x8,%rbx
   140001546:	48 39 f3             	cmp    %rsi,%rbx
   140001549:	75 f5                	jne    140001540 <__do_global_ctors+0x30>
   14000154b:	48 8d 0d 7e ff ff ff 	lea    -0x82(%rip),%rcx        # 1400014d0 <__do_global_dtors>
   140001552:	48 83 c4 28          	add    $0x28,%rsp
   140001556:	5b                   	pop    %rbx
   140001557:	5e                   	pop    %rsi
   140001558:	e9 b3 fe ff ff       	jmp    140001410 <atexit>
   14000155d:	0f 1f 00             	nopl   (%rax)
   140001560:	31 c0                	xor    %eax,%eax
   140001562:	66 0f 1f 44 00 00    	nopw   0x0(%rax,%rax,1)
   140001568:	44 8d 40 01          	lea    0x1(%rax),%r8d
   14000156c:	89 c1                	mov    %eax,%ecx
   14000156e:	4a 83 3c c2 00       	cmpq   $0x0,(%rdx,%r8,8)
   140001573:	4c 89 c0             	mov    %r8,%rax
   140001576:	75 f0                	jne    140001568 <__do_global_ctors+0x58>
   140001578:	eb ad                	jmp    140001527 <__do_global_ctors+0x17>
   14000157a:	66 0f 1f 44 00 00    	nopw   0x0(%rax,%rax,1)

0000000140001580 <__main>:
   140001580:	8b 05 aa ba 00 00    	mov    0xbaaa(%rip),%eax        # 14000d030 <initialized>
   140001586:	85 c0                	test   %eax,%eax
   140001588:	74 06                	je     140001590 <__main+0x10>
   14000158a:	c3                   	ret
   14000158b:	0f 1f 44 00 00       	nopl   0x0(%rax,%rax,1)
   140001590:	c7 05 96 ba 00 00 01 	movl   $0x1,0xba96(%rip)        # 14000d030 <initialized>
   140001597:	00 00 00 
   14000159a:	e9 71 ff ff ff       	jmp    140001510 <__do_global_ctors>
   14000159f:	90                   	nop

00000001400015a0 <_setargv>:
   1400015a0:	31 c0                	xor    %eax,%eax
   1400015a2:	c3                   	ret
   1400015a3:	90                   	nop
   1400015a4:	90                   	nop
   1400015a5:	90                   	nop
   1400015a6:	90                   	nop
   1400015a7:	90                   	nop
   1400015a8:	90                   	nop
   1400015a9:	90                   	nop
   1400015aa:	90                   	nop
   1400015ab:	90                   	nop
   1400015ac:	90                   	nop
   1400015ad:	90                   	nop
   1400015ae:	90                   	nop
   1400015af:	90                   	nop

00000001400015b0 <__dyn_tls_dtor>:
   1400015b0:	48 83 ec 28          	sub    $0x28,%rsp
   1400015b4:	83 fa 03             	cmp    $0x3,%edx
   1400015b7:	74 17                	je     1400015d0 <__dyn_tls_dtor+0x20>
   1400015b9:	85 d2                	test   %edx,%edx
   1400015bb:	74 13                	je     1400015d0 <__dyn_tls_dtor+0x20>
   1400015bd:	b8 01 00 00 00       	mov    $0x1,%eax
   1400015c2:	48 83 c4 28          	add    $0x28,%rsp
   1400015c6:	c3                   	ret
   1400015c7:	66 0f 1f 84 00 00 00 	nopw   0x0(%rax,%rax,1)
   1400015ce:	00 00 
   1400015d0:	e8 7b 0a 00 00       	call   140002050 <__mingw_TLScallback>
   1400015d5:	b8 01 00 00 00       	mov    $0x1,%eax
   1400015da:	48 83 c4 28          	add    $0x28,%rsp
   1400015de:	c3                   	ret
   1400015df:	90                   	nop

00000001400015e0 <__dyn_tls_init>:
   1400015e0:	56                   	push   %rsi
   1400015e1:	53                   	push   %rbx
   1400015e2:	48 83 ec 28          	sub    $0x28,%rsp
   1400015e6:	48 8b 05 f3 80 00 00 	mov    0x80f3(%rip),%rax        # 1400096e0 <.refptr._CRT_MT>
   1400015ed:	83 38 02             	cmpl   $0x2,(%rax)
   1400015f0:	74 06                	je     1400015f8 <__dyn_tls_init+0x18>
   1400015f2:	c7 00 02 00 00 00    	movl   $0x2,(%rax)
   1400015f8:	83 fa 02             	cmp    $0x2,%edx
   1400015fb:	74 13                	je     140001610 <__dyn_tls_init+0x30>
   1400015fd:	83 fa 01             	cmp    $0x1,%edx
   140001600:	74 4e                	je     140001650 <__dyn_tls_init+0x70>
   140001602:	b8 01 00 00 00       	mov    $0x1,%eax
   140001607:	48 83 c4 28          	add    $0x28,%rsp
   14000160b:	5b                   	pop    %rbx
   14000160c:	5e                   	pop    %rsi
   14000160d:	c3                   	ret
   14000160e:	66 90                	xchg   %ax,%ax
   140001610:	48 8d 1d 41 da 00 00 	lea    0xda41(%rip),%rbx        # 14000f058 <__xd_z>
   140001617:	48 8d 35 3a da 00 00 	lea    0xda3a(%rip),%rsi        # 14000f058 <__xd_z>
   14000161e:	48 39 f3             	cmp    %rsi,%rbx
   140001621:	74 df                	je     140001602 <__dyn_tls_init+0x22>
   140001623:	0f 1f 44 00 00       	nopl   0x0(%rax,%rax,1)
   140001628:	48 8b 03             	mov    (%rbx),%rax
   14000162b:	48 85 c0             	test   %rax,%rax
   14000162e:	74 02                	je     140001632 <__dyn_tls_init+0x52>
   140001630:	ff d0                	call   *%rax
   140001632:	48 83 c3 08          	add    $0x8,%rbx
   140001636:	48 39 f3             	cmp    %rsi,%rbx
   140001639:	75 ed                	jne    140001628 <__dyn_tls_init+0x48>
   14000163b:	b8 01 00 00 00       	mov    $0x1,%eax
   140001640:	48 83 c4 28          	add    $0x28,%rsp
   140001644:	5b                   	pop    %rbx
   140001645:	5e                   	pop    %rsi
   140001646:	c3                   	ret
   140001647:	66 0f 1f 84 00 00 00 	nopw   0x0(%rax,%rax,1)
   14000164e:	00 00 
   140001650:	e8 fb 09 00 00       	call   140002050 <__mingw_TLScallback>
   140001655:	b8 01 00 00 00       	mov    $0x1,%eax
   14000165a:	48 83 c4 28          	add    $0x28,%rsp
   14000165e:	5b                   	pop    %rbx
   14000165f:	5e                   	pop    %rsi
   140001660:	c3                   	ret
   140001661:	66 66 2e 0f 1f 84 00 	data16 cs nopw 0x0(%rax,%rax,1)
   140001668:	00 00 00 00 
   14000166c:	0f 1f 40 00          	nopl   0x0(%rax)

0000000140001670 <__tlregdtor>:
   140001670:	31 c0                	xor    %eax,%eax
   140001672:	c3                   	ret
   140001673:	90                   	nop
   140001674:	90                   	nop
   140001675:	90                   	nop
   140001676:	90                   	nop
   140001677:	90                   	nop
   140001678:	90                   	nop
   140001679:	90                   	nop
   14000167a:	90                   	nop
   14000167b:	90                   	nop
   14000167c:	90                   	nop
   14000167d:	90                   	nop
   14000167e:	90                   	nop
   14000167f:	90                   	nop

0000000140001680 <_matherr>:
   140001680:	56                   	push   %rsi
   140001681:	53                   	push   %rbx
   140001682:	48 83 ec 78          	sub    $0x78,%rsp
   140001686:	0f 11 74 24 40       	movups %xmm6,0x40(%rsp)
   14000168b:	0f 11 7c 24 50       	movups %xmm7,0x50(%rsp)
   140001690:	44 0f 11 44 24 60    	movups %xmm8,0x60(%rsp)
   140001696:	83 39 06             	cmpl   $0x6,(%rcx)
   140001699:	0f 87 cd 00 00 00    	ja     14000176c <_matherr+0xec>
   14000169f:	8b 01                	mov    (%rcx),%eax
   1400016a1:	48 8d 15 fc 7a 00 00 	lea    0x7afc(%rip),%rdx        # 1400091a4 <.rdata+0x124>
   1400016a8:	48 63 04 82          	movslq (%rdx,%rax,4),%rax
   1400016ac:	48 01 d0             	add    %rdx,%rax
   1400016af:	ff e0                	jmp    *%rax
   1400016b1:	0f 1f 80 00 00 00 00 	nopl   0x0(%rax)
   1400016b8:	48 8d 1d e0 79 00 00 	lea    0x79e0(%rip),%rbx        # 14000909f <.rdata+0x1f>
   1400016bf:	f2 44 0f 10 41 20    	movsd  0x20(%rcx),%xmm8
   1400016c5:	f2 0f 10 79 18       	movsd  0x18(%rcx),%xmm7
   1400016ca:	f2 0f 10 71 10       	movsd  0x10(%rcx),%xmm6
   1400016cf:	48 8b 71 08          	mov    0x8(%rcx),%rsi
   1400016d3:	b9 02 00 00 00       	mov    $0x2,%ecx
   1400016d8:	e8 23 5f 00 00       	call   140007600 <__acrt_iob_func>
   1400016dd:	f2 44 0f 11 44 24 30 	movsd  %xmm8,0x30(%rsp)
   1400016e4:	49 89 d8             	mov    %rbx,%r8
   1400016e7:	48 8d 15 8a 7a 00 00 	lea    0x7a8a(%rip),%rdx        # 140009178 <.rdata+0xf8>
   1400016ee:	f2 0f 11 7c 24 28    	movsd  %xmm7,0x28(%rsp)
   1400016f4:	48 89 c1             	mov    %rax,%rcx
   1400016f7:	49 89 f1             	mov    %rsi,%r9
   1400016fa:	f2 0f 11 74 24 20    	movsd  %xmm6,0x20(%rsp)
   140001700:	e8 b3 64 00 00       	call   140007bb8 <fprintf>
   140001705:	90                   	nop
   140001706:	0f 10 74 24 40       	movups 0x40(%rsp),%xmm6
   14000170b:	0f 10 7c 24 50       	movups 0x50(%rsp),%xmm7
   140001710:	31 c0                	xor    %eax,%eax
   140001712:	44 0f 10 44 24 60    	movups 0x60(%rsp),%xmm8
   140001718:	48 83 c4 78          	add    $0x78,%rsp
   14000171c:	5b                   	pop    %rbx
   14000171d:	5e                   	pop    %rsi
   14000171e:	c3                   	ret
   14000171f:	90                   	nop
   140001720:	48 8d 1d 59 79 00 00 	lea    0x7959(%rip),%rbx        # 140009080 <.rdata>
   140001727:	eb 96                	jmp    1400016bf <_matherr+0x3f>
   140001729:	0f 1f 80 00 00 00 00 	nopl   0x0(%rax)
   140001730:	48 8d 1d a9 79 00 00 	lea    0x79a9(%rip),%rbx        # 1400090e0 <.rdata+0x60>
   140001737:	eb 86                	jmp    1400016bf <_matherr+0x3f>
   140001739:	0f 1f 80 00 00 00 00 	nopl   0x0(%rax)
   140001740:	48 8d 1d 79 79 00 00 	lea    0x7979(%rip),%rbx        # 1400090c0 <.rdata+0x40>
   140001747:	e9 73 ff ff ff       	jmp    1400016bf <_matherr+0x3f>
   14000174c:	0f 1f 40 00          	nopl   0x0(%rax)
   140001750:	48 8d 1d d9 79 00 00 	lea    0x79d9(%rip),%rbx        # 140009130 <.rdata+0xb0>
   140001757:	e9 63 ff ff ff       	jmp    1400016bf <_matherr+0x3f>
   14000175c:	0f 1f 40 00          	nopl   0x0(%rax)
   140001760:	48 8d 1d a1 79 00 00 	lea    0x79a1(%rip),%rbx        # 140009108 <.rdata+0x88>
   140001767:	e9 53 ff ff ff       	jmp    1400016bf <_matherr+0x3f>
   14000176c:	48 8d 1d f3 79 00 00 	lea    0x79f3(%rip),%rbx        # 140009166 <.rdata+0xe6>
   140001773:	e9 47 ff ff ff       	jmp    1400016bf <_matherr+0x3f>
   140001778:	90                   	nop
   140001779:	90                   	nop
   14000177a:	90                   	nop
   14000177b:	90                   	nop
   14000177c:	90                   	nop
   14000177d:	90                   	nop
   14000177e:	90                   	nop
   14000177f:	90                   	nop

0000000140001780 <_fpreset>:
   140001780:	db e3                	fninit
   140001782:	c3                   	ret
   140001783:	90                   	nop
   140001784:	90                   	nop
   140001785:	90                   	nop
   140001786:	90                   	nop
   140001787:	90                   	nop
   140001788:	90                   	nop
   140001789:	90                   	nop
   14000178a:	90                   	nop
   14000178b:	90                   	nop
   14000178c:	90                   	nop
   14000178d:	90                   	nop
   14000178e:	90                   	nop
   14000178f:	90                   	nop

0000000140001790 <__report_error>:
   140001790:	56                   	push   %rsi
   140001791:	53                   	push   %rbx
   140001792:	48 83 ec 38          	sub    $0x38,%rsp
   140001796:	48 89 cb             	mov    %rcx,%rbx
   140001799:	48 8d 44 24 58       	lea    0x58(%rsp),%rax
   14000179e:	b9 02 00 00 00       	mov    $0x2,%ecx
   1400017a3:	48 89 54 24 58       	mov    %rdx,0x58(%rsp)
   1400017a8:	4c 89 44 24 60       	mov    %r8,0x60(%rsp)
   1400017ad:	4c 89 4c 24 68       	mov    %r9,0x68(%rsp)
   1400017b2:	48 89 44 24 28       	mov    %rax,0x28(%rsp)
   1400017b7:	e8 44 5e 00 00       	call   140007600 <__acrt_iob_func>
   1400017bc:	41 b8 1b 00 00 00    	mov    $0x1b,%r8d
   1400017c2:	ba 01 00 00 00       	mov    $0x1,%edx
   1400017c7:	48 8d 0d f2 79 00 00 	lea    0x79f2(%rip),%rcx        # 1400091c0 <.rdata>
   1400017ce:	49 89 c1             	mov    %rax,%r9
   1400017d1:	e8 fa 63 00 00       	call   140007bd0 <fwrite>
   1400017d6:	48 8b 74 24 28       	mov    0x28(%rsp),%rsi
   1400017db:	b9 02 00 00 00       	mov    $0x2,%ecx
   1400017e0:	e8 1b 5e 00 00       	call   140007600 <__acrt_iob_func>
   1400017e5:	48 89 da             	mov    %rbx,%rdx
   1400017e8:	48 89 c1             	mov    %rax,%rcx
   1400017eb:	49 89 f0             	mov    %rsi,%r8
   1400017ee:	e8 25 64 00 00       	call   140007c18 <vfprintf>
   1400017f3:	e8 a8 63 00 00       	call   140007ba0 <abort>
   1400017f8:	90                   	nop
   1400017f9:	0f 1f 80 00 00 00 00 	nopl   0x0(%rax)

0000000140001800 <mark_section_writable>:
   140001800:	57                   	push   %rdi
   140001801:	56                   	push   %rsi
   140001802:	53                   	push   %rbx
   140001803:	48 83 ec 50          	sub    $0x50,%rsp
   140001807:	48 63 35 86 b8 00 00 	movslq 0xb886(%rip),%rsi        # 14000d094 <maxSections>
   14000180e:	48 89 cb             	mov    %rcx,%rbx
   140001811:	85 f6                	test   %esi,%esi
   140001813:	0f 8e 17 01 00 00    	jle    140001930 <mark_section_writable+0x130>
   140001819:	48 8b 05 78 b8 00 00 	mov    0xb878(%rip),%rax        # 14000d098 <the_secs>
   140001820:	45 31 c9             	xor    %r9d,%r9d
   140001823:	48 83 c0 18          	add    $0x18,%rax
   140001827:	66 0f 1f 84 00 00 00 	nopw   0x0(%rax,%rax,1)
   14000182e:	00 00 
   140001830:	4c 8b 00             	mov    (%rax),%r8
   140001833:	4c 39 c3             	cmp    %r8,%rbx
   140001836:	72 13                	jb     14000184b <mark_section_writable+0x4b>
   140001838:	48 8b 50 08          	mov    0x8(%rax),%rdx
   14000183c:	8b 52 08             	mov    0x8(%rdx),%edx
   14000183f:	49 01 d0             	add    %rdx,%r8
   140001842:	4c 39 c3             	cmp    %r8,%rbx
   140001845:	0f 82 8a 00 00 00    	jb     1400018d5 <mark_section_writable+0xd5>
   14000184b:	41 83 c1 01          	add    $0x1,%r9d
   14000184f:	48 83 c0 28          	add    $0x28,%rax
   140001853:	41 39 f1             	cmp    %esi,%r9d
   140001856:	75 d8                	jne    140001830 <mark_section_writable+0x30>
   140001858:	48 89 d9             	mov    %rbx,%rcx
   14000185b:	e8 10 0a 00 00       	call   140002270 <__mingw_GetSectionForAddress>
   140001860:	48 89 c7             	mov    %rax,%rdi
   140001863:	48 85 c0             	test   %rax,%rax
   140001866:	0f 84 e6 00 00 00    	je     140001952 <mark_section_writable+0x152>
   14000186c:	48 8b 05 25 b8 00 00 	mov    0xb825(%rip),%rax        # 14000d098 <the_secs>
   140001873:	48 8d 1c b6          	lea    (%rsi,%rsi,4),%rbx
   140001877:	48 c1 e3 03          	shl    $0x3,%rbx
   14000187b:	48 01 d8             	add    %rbx,%rax
   14000187e:	48 89 78 20          	mov    %rdi,0x20(%rax)
   140001882:	c7 00 00 00 00 00    	movl   $0x0,(%rax)
   140001888:	e8 23 0b 00 00       	call   1400023b0 <_GetPEImageBase>
   14000188d:	8b 57 0c             	mov    0xc(%rdi),%edx
   140001890:	41 b8 30 00 00 00    	mov    $0x30,%r8d
   140001896:	48 8d 0c 10          	lea    (%rax,%rdx,1),%rcx
   14000189a:	48 8b 05 f7 b7 00 00 	mov    0xb7f7(%rip),%rax        # 14000d098 <the_secs>
   1400018a1:	48 8d 54 24 20       	lea    0x20(%rsp),%rdx
   1400018a6:	48 89 4c 18 18       	mov    %rcx,0x18(%rax,%rbx,1)
   1400018ab:	ff 15 6f c9 00 00    	call   *0xc96f(%rip)        # 14000e220 <__imp_VirtualQuery>
   1400018b1:	48 85 c0             	test   %rax,%rax
   1400018b4:	0f 84 7d 00 00 00    	je     140001937 <mark_section_writable+0x137>
   1400018ba:	8b 44 24 44          	mov    0x44(%rsp),%eax
   1400018be:	8d 50 fc             	lea    -0x4(%rax),%edx
   1400018c1:	83 e2 fb             	and    $0xfffffffb,%edx
   1400018c4:	74 08                	je     1400018ce <mark_section_writable+0xce>
   1400018c6:	8d 50 c0             	lea    -0x40(%rax),%edx
   1400018c9:	83 e2 bf             	and    $0xffffffbf,%edx
   1400018cc:	75 12                	jne    1400018e0 <mark_section_writable+0xe0>
   1400018ce:	83 05 bf b7 00 00 01 	addl   $0x1,0xb7bf(%rip)        # 14000d094 <maxSections>
   1400018d5:	48 83 c4 50          	add    $0x50,%rsp
   1400018d9:	5b                   	pop    %rbx
   1400018da:	5e                   	pop    %rsi
   1400018db:	5f                   	pop    %rdi
   1400018dc:	c3                   	ret
   1400018dd:	0f 1f 00             	nopl   (%rax)
   1400018e0:	83 f8 02             	cmp    $0x2,%eax
   1400018e3:	48 8b 4c 24 20       	mov    0x20(%rsp),%rcx
   1400018e8:	48 8b 54 24 38       	mov    0x38(%rsp),%rdx
   1400018ed:	41 b8 40 00 00 00    	mov    $0x40,%r8d
   1400018f3:	b8 04 00 00 00       	mov    $0x4,%eax
   1400018f8:	44 0f 44 c0          	cmove  %eax,%r8d
   1400018fc:	48 03 1d 95 b7 00 00 	add    0xb795(%rip),%rbx        # 14000d098 <the_secs>
   140001903:	48 89 4b 08          	mov    %rcx,0x8(%rbx)
   140001907:	49 89 d9             	mov    %rbx,%r9
   14000190a:	48 89 53 10          	mov    %rdx,0x10(%rbx)
   14000190e:	ff 15 04 c9 00 00    	call   *0xc904(%rip)        # 14000e218 <__imp_VirtualProtect>
   140001914:	85 c0                	test   %eax,%eax
   140001916:	75 b6                	jne    1400018ce <mark_section_writable+0xce>
   140001918:	ff 15 ba c8 00 00    	call   *0xc8ba(%rip)        # 14000e1d8 <__imp_GetLastError>
   14000191e:	48 8d 0d 13 79 00 00 	lea    0x7913(%rip),%rcx        # 140009238 <.rdata+0x78>
   140001925:	89 c2                	mov    %eax,%edx
   140001927:	e8 64 fe ff ff       	call   140001790 <__report_error>
   14000192c:	0f 1f 40 00          	nopl   0x0(%rax)
   140001930:	31 f6                	xor    %esi,%esi
   140001932:	e9 21 ff ff ff       	jmp    140001858 <mark_section_writable+0x58>
   140001937:	48 8b 05 5a b7 00 00 	mov    0xb75a(%rip),%rax        # 14000d098 <the_secs>
   14000193e:	8b 57 08             	mov    0x8(%rdi),%edx
   140001941:	48 8d 0d b8 78 00 00 	lea    0x78b8(%rip),%rcx        # 140009200 <.rdata+0x40>
   140001948:	4c 8b 44 18 18       	mov    0x18(%rax,%rbx,1),%r8
   14000194d:	e8 3e fe ff ff       	call   140001790 <__report_error>
   140001952:	48 89 da             	mov    %rbx,%rdx
   140001955:	48 8d 0d 84 78 00 00 	lea    0x7884(%rip),%rcx        # 1400091e0 <.rdata+0x20>
   14000195c:	e8 2f fe ff ff       	call   140001790 <__report_error>
   140001961:	90                   	nop
   140001962:	66 66 2e 0f 1f 84 00 	data16 cs nopw 0x0(%rax,%rax,1)
   140001969:	00 00 00 00 
   14000196d:	0f 1f 00             	nopl   (%rax)

0000000140001970 <_pei386_runtime_relocator>:
   140001970:	55                   	push   %rbp
   140001971:	41 57                	push   %r15
   140001973:	41 56                	push   %r14
   140001975:	41 55                	push   %r13
   140001977:	41 54                	push   %r12
   140001979:	57                   	push   %rdi
   14000197a:	56                   	push   %rsi
   14000197b:	53                   	push   %rbx
   14000197c:	48 83 ec 48          	sub    $0x48,%rsp
   140001980:	48 8d 6c 24 40       	lea    0x40(%rsp),%rbp
   140001985:	44 8b 25 04 b7 00 00 	mov    0xb704(%rip),%r12d        # 14000d090 <was_init.0>
   14000198c:	45 85 e4             	test   %r12d,%r12d
   14000198f:	74 17                	je     1400019a8 <_pei386_runtime_relocator+0x38>
   140001991:	48 8d 65 08          	lea    0x8(%rbp),%rsp
   140001995:	5b                   	pop    %rbx
   140001996:	5e                   	pop    %rsi
   140001997:	5f                   	pop    %rdi
   140001998:	41 5c                	pop    %r12
   14000199a:	41 5d                	pop    %r13
   14000199c:	41 5e                	pop    %r14
   14000199e:	41 5f                	pop    %r15
   1400019a0:	5d                   	pop    %rbp
   1400019a1:	c3                   	ret
   1400019a2:	66 0f 1f 44 00 00    	nopw   0x0(%rax,%rax,1)
   1400019a8:	c7 05 de b6 00 00 01 	movl   $0x1,0xb6de(%rip)        # 14000d090 <was_init.0>
   1400019af:	00 00 00 
   1400019b2:	e8 39 09 00 00       	call   1400022f0 <__mingw_GetSectionCount>
   1400019b7:	48 98                	cltq
   1400019b9:	48 8d 04 80          	lea    (%rax,%rax,4),%rax
   1400019bd:	48 8d 04 c5 0f 00 00 	lea    0xf(,%rax,8),%rax
   1400019c4:	00 
   1400019c5:	48 83 e0 f0          	and    $0xfffffffffffffff0,%rax
   1400019c9:	e8 82 0b 00 00       	call   140002550 <___chkstk_ms>
   1400019ce:	4c 8b 2d 4b 7d 00 00 	mov    0x7d4b(%rip),%r13        # 140009720 <.refptr.__RUNTIME_PSEUDO_RELOC_LIST_END__>
   1400019d5:	48 8b 1d 54 7d 00 00 	mov    0x7d54(%rip),%rbx        # 140009730 <.refptr.__RUNTIME_PSEUDO_RELOC_LIST__>
   1400019dc:	c7 05 ae b6 00 00 00 	movl   $0x0,0xb6ae(%rip)        # 14000d094 <maxSections>
   1400019e3:	00 00 00 
   1400019e6:	48 29 c4             	sub    %rax,%rsp
   1400019e9:	48 8d 44 24 30       	lea    0x30(%rsp),%rax
   1400019ee:	48 89 05 a3 b6 00 00 	mov    %rax,0xb6a3(%rip)        # 14000d098 <the_secs>
   1400019f5:	4c 89 e8             	mov    %r13,%rax
   1400019f8:	48 29 d8             	sub    %rbx,%rax
   1400019fb:	48 83 f8 07          	cmp    $0x7,%rax
   1400019ff:	7e 90                	jle    140001991 <_pei386_runtime_relocator+0x21>
   140001a01:	8b 13                	mov    (%rbx),%edx
   140001a03:	48 83 f8 0b          	cmp    $0xb,%rax
   140001a07:	0f 8f 03 01 00 00    	jg     140001b10 <_pei386_runtime_relocator+0x1a0>
   140001a0d:	8b 03                	mov    (%rbx),%eax
   140001a0f:	85 c0                	test   %eax,%eax
   140001a11:	0f 85 69 02 00 00    	jne    140001c80 <_pei386_runtime_relocator+0x310>
   140001a17:	8b 43 04             	mov    0x4(%rbx),%eax
   140001a1a:	85 c0                	test   %eax,%eax
   140001a1c:	0f 85 5e 02 00 00    	jne    140001c80 <_pei386_runtime_relocator+0x310>
   140001a22:	8b 53 08             	mov    0x8(%rbx),%edx
   140001a25:	83 fa 01             	cmp    $0x1,%edx
   140001a28:	0f 85 92 02 00 00    	jne    140001cc0 <_pei386_runtime_relocator+0x350>
   140001a2e:	48 83 c3 0c          	add    $0xc,%rbx
   140001a32:	4c 39 eb             	cmp    %r13,%rbx
   140001a35:	0f 83 56 ff ff ff    	jae    140001991 <_pei386_runtime_relocator+0x21>
   140001a3b:	4c 8b 35 ce 7c 00 00 	mov    0x7cce(%rip),%r14        # 140009710 <.refptr.__ImageBase>
   140001a42:	41 bf ff ff ff ff    	mov    $0xffffffff,%r15d
   140001a48:	eb 65                	jmp    140001aaf <_pei386_runtime_relocator+0x13f>
   140001a4a:	66 0f 1f 44 00 00    	nopw   0x0(%rax,%rax,1)
   140001a50:	83 f9 08             	cmp    $0x8,%ecx
   140001a53:	0f 84 d7 00 00 00    	je     140001b30 <_pei386_runtime_relocator+0x1c0>
   140001a59:	83 f9 10             	cmp    $0x10,%ecx
   140001a5c:	0f 85 50 02 00 00    	jne    140001cb2 <_pei386_runtime_relocator+0x342>
   140001a62:	0f b7 37             	movzwl (%rdi),%esi
   140001a65:	81 e2 c0 00 00 00    	and    $0xc0,%edx
   140001a6b:	66 85 f6             	test   %si,%si
   140001a6e:	0f 89 cc 01 00 00    	jns    140001c40 <_pei386_runtime_relocator+0x2d0>
   140001a74:	48 81 ce 00 00 ff ff 	or     $0xffffffffffff0000,%rsi
   140001a7b:	48 29 c6             	sub    %rax,%rsi
   140001a7e:	4c 01 ce             	add    %r9,%rsi
   140001a81:	85 d2                	test   %edx,%edx
   140001a83:	75 12                	jne    140001a97 <_pei386_runtime_relocator+0x127>
   140001a85:	48 81 fe 00 80 ff ff 	cmp    $0xffffffffffff8000,%rsi
   140001a8c:	7c 65                	jl     140001af3 <_pei386_runtime_relocator+0x183>
   140001a8e:	48 81 fe ff ff 00 00 	cmp    $0xffff,%rsi
   140001a95:	7f 5c                	jg     140001af3 <_pei386_runtime_relocator+0x183>
   140001a97:	48 89 f9             	mov    %rdi,%rcx
   140001a9a:	e8 61 fd ff ff       	call   140001800 <mark_section_writable>
   140001a9f:	66 89 37             	mov    %si,(%rdi)
   140001aa2:	48 83 c3 0c          	add    $0xc,%rbx
   140001aa6:	4c 39 eb             	cmp    %r13,%rbx
   140001aa9:	0f 83 d1 00 00 00    	jae    140001b80 <_pei386_runtime_relocator+0x210>
   140001aaf:	8b 03                	mov    (%rbx),%eax
   140001ab1:	8b 53 08             	mov    0x8(%rbx),%edx
   140001ab4:	8b 7b 04             	mov    0x4(%rbx),%edi
   140001ab7:	4c 01 f0             	add    %r14,%rax
   140001aba:	0f b6 ca             	movzbl %dl,%ecx
   140001abd:	4c 8b 08             	mov    (%rax),%r9
   140001ac0:	4c 01 f7             	add    %r14,%rdi
   140001ac3:	83 f9 20             	cmp    $0x20,%ecx
   140001ac6:	0f 84 0c 01 00 00    	je     140001bd8 <_pei386_runtime_relocator+0x268>
   140001acc:	76 82                	jbe    140001a50 <_pei386_runtime_relocator+0xe0>
   140001ace:	83 f9 40             	cmp    $0x40,%ecx
   140001ad1:	0f 85 db 01 00 00    	jne    140001cb2 <_pei386_runtime_relocator+0x342>
   140001ad7:	48 8b 37             	mov    (%rdi),%rsi
   140001ada:	89 d1                	mov    %edx,%ecx
   140001adc:	48 29 c6             	sub    %rax,%rsi
   140001adf:	4c 01 ce             	add    %r9,%rsi
   140001ae2:	81 e1 c0 00 00 00    	and    $0xc0,%ecx
   140001ae8:	0f 85 42 01 00 00    	jne    140001c30 <_pei386_runtime_relocator+0x2c0>
   140001aee:	48 85 f6             	test   %rsi,%rsi
   140001af1:	78 af                	js     140001aa2 <_pei386_runtime_relocator+0x132>
   140001af3:	48 89 74 24 20       	mov    %rsi,0x20(%rsp)
   140001af8:	89 ca                	mov    %ecx,%edx
   140001afa:	49 89 f8             	mov    %rdi,%r8
   140001afd:	48 8d 0d c4 77 00 00 	lea    0x77c4(%rip),%rcx        # 1400092c8 <.rdata+0x108>
   140001b04:	e8 87 fc ff ff       	call   140001790 <__report_error>
   140001b09:	0f 1f 80 00 00 00 00 	nopl   0x0(%rax)
   140001b10:	85 d2                	test   %edx,%edx
   140001b12:	0f 85 68 01 00 00    	jne    140001c80 <_pei386_runtime_relocator+0x310>
   140001b18:	8b 43 04             	mov    0x4(%rbx),%eax
   140001b1b:	89 c2                	mov    %eax,%edx
   140001b1d:	0b 53 08             	or     0x8(%rbx),%edx
   140001b20:	0f 85 f4 fe ff ff    	jne    140001a1a <_pei386_runtime_relocator+0xaa>
   140001b26:	48 83 c3 0c          	add    $0xc,%rbx
   140001b2a:	e9 de fe ff ff       	jmp    140001a0d <_pei386_runtime_relocator+0x9d>
   140001b2f:	90                   	nop
   140001b30:	0f b6 37             	movzbl (%rdi),%esi
   140001b33:	81 e2 c0 00 00 00    	and    $0xc0,%edx
   140001b39:	40 84 f6             	test   %sil,%sil
   140001b3c:	0f 89 26 01 00 00    	jns    140001c68 <_pei386_runtime_relocator+0x2f8>
   140001b42:	48 81 ce 00 ff ff ff 	or     $0xffffffffffffff00,%rsi
   140001b49:	48 29 c6             	sub    %rax,%rsi
   140001b4c:	4c 01 ce             	add    %r9,%rsi
   140001b4f:	85 d2                	test   %edx,%edx
   140001b51:	75 0f                	jne    140001b62 <_pei386_runtime_relocator+0x1f2>
   140001b53:	48 81 fe ff 00 00 00 	cmp    $0xff,%rsi
   140001b5a:	7f 97                	jg     140001af3 <_pei386_runtime_relocator+0x183>
   140001b5c:	48 83 fe 80          	cmp    $0xffffffffffffff80,%rsi
   140001b60:	7c 91                	jl     140001af3 <_pei386_runtime_relocator+0x183>
   140001b62:	48 89 f9             	mov    %rdi,%rcx
   140001b65:	48 83 c3 0c          	add    $0xc,%rbx
   140001b69:	e8 92 fc ff ff       	call   140001800 <mark_section_writable>
   140001b6e:	40 88 37             	mov    %sil,(%rdi)
   140001b71:	4c 39 eb             	cmp    %r13,%rbx
   140001b74:	0f 82 35 ff ff ff    	jb     140001aaf <_pei386_runtime_relocator+0x13f>
   140001b7a:	66 0f 1f 44 00 00    	nopw   0x0(%rax,%rax,1)
   140001b80:	8b 15 0e b5 00 00    	mov    0xb50e(%rip),%edx        # 14000d094 <maxSections>
   140001b86:	85 d2                	test   %edx,%edx
   140001b88:	0f 8e 03 fe ff ff    	jle    140001991 <_pei386_runtime_relocator+0x21>
   140001b8e:	48 8b 35 83 c6 00 00 	mov    0xc683(%rip),%rsi        # 14000e218 <__imp_VirtualProtect>
   140001b95:	31 db                	xor    %ebx,%ebx
   140001b97:	48 8d 7d fc          	lea    -0x4(%rbp),%rdi
   140001b9b:	0f 1f 44 00 00       	nopl   0x0(%rax,%rax,1)
   140001ba0:	48 8b 05 f1 b4 00 00 	mov    0xb4f1(%rip),%rax        # 14000d098 <the_secs>
   140001ba7:	48 01 d8             	add    %rbx,%rax
   140001baa:	44 8b 00             	mov    (%rax),%r8d
   140001bad:	45 85 c0             	test   %r8d,%r8d
   140001bb0:	74 0d                	je     140001bbf <_pei386_runtime_relocator+0x24f>
   140001bb2:	48 8b 50 10          	mov    0x10(%rax),%rdx
   140001bb6:	48 8b 48 08          	mov    0x8(%rax),%rcx
   140001bba:	49 89 f9             	mov    %rdi,%r9
   140001bbd:	ff d6                	call   *%rsi
   140001bbf:	41 83 c4 01          	add    $0x1,%r12d
   140001bc3:	48 83 c3 28          	add    $0x28,%rbx
   140001bc7:	44 3b 25 c6 b4 00 00 	cmp    0xb4c6(%rip),%r12d        # 14000d094 <maxSections>
   140001bce:	7c d0                	jl     140001ba0 <_pei386_runtime_relocator+0x230>
   140001bd0:	e9 bc fd ff ff       	jmp    140001991 <_pei386_runtime_relocator+0x21>
   140001bd5:	0f 1f 00             	nopl   (%rax)
   140001bd8:	8b 37                	mov    (%rdi),%esi
   140001bda:	81 e2 c0 00 00 00    	and    $0xc0,%edx
   140001be0:	85 f6                	test   %esi,%esi
   140001be2:	79 74                	jns    140001c58 <_pei386_runtime_relocator+0x2e8>
   140001be4:	49 bb 00 00 00 00 ff 	movabs $0xffffffff00000000,%r11
   140001beb:	ff ff ff 
   140001bee:	4c 09 de             	or     %r11,%rsi
   140001bf1:	48 29 c6             	sub    %rax,%rsi
   140001bf4:	4c 01 ce             	add    %r9,%rsi
   140001bf7:	85 d2                	test   %edx,%edx
   140001bf9:	75 1c                	jne    140001c17 <_pei386_runtime_relocator+0x2a7>
   140001bfb:	4c 39 fe             	cmp    %r15,%rsi
   140001bfe:	0f 8f ef fe ff ff    	jg     140001af3 <_pei386_runtime_relocator+0x183>
   140001c04:	48 b8 ff ff ff 7f ff 	movabs $0xffffffff7fffffff,%rax
   140001c0b:	ff ff ff 
   140001c0e:	48 39 c6             	cmp    %rax,%rsi
   140001c11:	0f 8e dc fe ff ff    	jle    140001af3 <_pei386_runtime_relocator+0x183>
   140001c17:	48 89 f9             	mov    %rdi,%rcx
   140001c1a:	e8 e1 fb ff ff       	call   140001800 <mark_section_writable>
   140001c1f:	89 37                	mov    %esi,(%rdi)
   140001c21:	e9 7c fe ff ff       	jmp    140001aa2 <_pei386_runtime_relocator+0x132>
   140001c26:	66 2e 0f 1f 84 00 00 	cs nopw 0x0(%rax,%rax,1)
   140001c2d:	00 00 00 
   140001c30:	48 89 f9             	mov    %rdi,%rcx
   140001c33:	e8 c8 fb ff ff       	call   140001800 <mark_section_writable>
   140001c38:	48 89 37             	mov    %rsi,(%rdi)
   140001c3b:	e9 62 fe ff ff       	jmp    140001aa2 <_pei386_runtime_relocator+0x132>
   140001c40:	48 29 c6             	sub    %rax,%rsi
   140001c43:	4c 01 ce             	add    %r9,%rsi
   140001c46:	85 d2                	test   %edx,%edx
   140001c48:	0f 84 37 fe ff ff    	je     140001a85 <_pei386_runtime_relocator+0x115>
   140001c4e:	e9 44 fe ff ff       	jmp    140001a97 <_pei386_runtime_relocator+0x127>
   140001c53:	0f 1f 44 00 00       	nopl   0x0(%rax,%rax,1)
   140001c58:	48 29 c6             	sub    %rax,%rsi
   140001c5b:	4c 01 ce             	add    %r9,%rsi
   140001c5e:	85 d2                	test   %edx,%edx
   140001c60:	74 99                	je     140001bfb <_pei386_runtime_relocator+0x28b>
   140001c62:	eb b3                	jmp    140001c17 <_pei386_runtime_relocator+0x2a7>
   140001c64:	0f 1f 40 00          	nopl   0x0(%rax)
   140001c68:	48 29 c6             	sub    %rax,%rsi
   140001c6b:	4c 01 ce             	add    %r9,%rsi
   140001c6e:	85 d2                	test   %edx,%edx
   140001c70:	0f 84 dd fe ff ff    	je     140001b53 <_pei386_runtime_relocator+0x1e3>
   140001c76:	e9 e7 fe ff ff       	jmp    140001b62 <_pei386_runtime_relocator+0x1f2>
   140001c7b:	0f 1f 44 00 00       	nopl   0x0(%rax,%rax,1)
   140001c80:	4c 39 eb             	cmp    %r13,%rbx
   140001c83:	0f 83 08 fd ff ff    	jae    140001991 <_pei386_runtime_relocator+0x21>
   140001c89:	4c 8b 35 80 7a 00 00 	mov    0x7a80(%rip),%r14        # 140009710 <.refptr.__ImageBase>
   140001c90:	8b 73 04             	mov    0x4(%rbx),%esi
   140001c93:	8b 3b                	mov    (%rbx),%edi
   140001c95:	48 83 c3 08          	add    $0x8,%rbx
   140001c99:	4c 01 f6             	add    %r14,%rsi
   140001c9c:	03 3e                	add    (%rsi),%edi
   140001c9e:	48 89 f1             	mov    %rsi,%rcx
   140001ca1:	e8 5a fb ff ff       	call   140001800 <mark_section_writable>
   140001ca6:	89 3e                	mov    %edi,(%rsi)
   140001ca8:	4c 39 eb             	cmp    %r13,%rbx
   140001cab:	72 e3                	jb     140001c90 <_pei386_runtime_relocator+0x320>
   140001cad:	e9 ce fe ff ff       	jmp    140001b80 <_pei386_runtime_relocator+0x210>
   140001cb2:	89 ca                	mov    %ecx,%edx
   140001cb4:	48 8d 0d dd 75 00 00 	lea    0x75dd(%rip),%rcx        # 140009298 <.rdata+0xd8>
   140001cbb:	e8 d0 fa ff ff       	call   140001790 <__report_error>
   140001cc0:	48 8d 0d 99 75 00 00 	lea    0x7599(%rip),%rcx        # 140009260 <.rdata+0xa0>
   140001cc7:	e8 c4 fa ff ff       	call   140001790 <__report_error>
   140001ccc:	90                   	nop
   140001ccd:	90                   	nop
   140001cce:	90                   	nop
   140001ccf:	90                   	nop

0000000140001cd0 <__mingw_raise_matherr>:
   140001cd0:	48 83 ec 58          	sub    $0x58,%rsp
   140001cd4:	48 8b 05 c5 b3 00 00 	mov    0xb3c5(%rip),%rax        # 14000d0a0 <stUserMathErr>
   140001cdb:	66 0f 14 d3          	unpcklpd %xmm3,%xmm2
   140001cdf:	48 85 c0             	test   %rax,%rax
   140001ce2:	74 25                	je     140001d09 <__mingw_raise_matherr+0x39>
   140001ce4:	f2 0f 10 84 24 80 00 	movsd  0x80(%rsp),%xmm0
   140001ceb:	00 00 
   140001ced:	89 4c 24 20          	mov    %ecx,0x20(%rsp)
   140001cf1:	48 8d 4c 24 20       	lea    0x20(%rsp),%rcx
   140001cf6:	48 89 54 24 28       	mov    %rdx,0x28(%rsp)
   140001cfb:	0f 11 54 24 30       	movups %xmm2,0x30(%rsp)
   140001d00:	f2 0f 11 44 24 40    	movsd  %xmm0,0x40(%rsp)
   140001d06:	ff d0                	call   *%rax
   140001d08:	90                   	nop
   140001d09:	48 83 c4 58          	add    $0x58,%rsp
   140001d0d:	c3                   	ret
   140001d0e:	66 90                	xchg   %ax,%ax

0000000140001d10 <__mingw_setusermatherr>:
   140001d10:	48 89 0d 89 b3 00 00 	mov    %rcx,0xb389(%rip)        # 14000d0a0 <stUserMathErr>
   140001d17:	e9 44 5e 00 00       	jmp    140007b60 <__setusermatherr>
   140001d1c:	90                   	nop
   140001d1d:	90                   	nop
   140001d1e:	90                   	nop
   140001d1f:	90                   	nop

0000000140001d20 <_gnu_exception_handler>:
   140001d20:	53                   	push   %rbx
   140001d21:	48 83 ec 20          	sub    $0x20,%rsp
   140001d25:	48 8b 11             	mov    (%rcx),%rdx
   140001d28:	8b 02                	mov    (%rdx),%eax
   140001d2a:	48 89 cb             	mov    %rcx,%rbx
   140001d2d:	89 c1                	mov    %eax,%ecx
   140001d2f:	81 e1 ff ff ff 20    	and    $0x20ffffff,%ecx
   140001d35:	81 f9 43 43 47 20    	cmp    $0x20474343,%ecx
   140001d3b:	0f 84 bf 00 00 00    	je     140001e00 <_gnu_exception_handler+0xe0>
   140001d41:	3d 96 00 00 c0       	cmp    $0xc0000096,%eax
   140001d46:	77 47                	ja     140001d8f <_gnu_exception_handler+0x6f>
   140001d48:	3d 8b 00 00 c0       	cmp    $0xc000008b,%eax
   140001d4d:	76 61                	jbe    140001db0 <_gnu_exception_handler+0x90>
   140001d4f:	05 73 ff ff 3f       	add    $0x3fffff73,%eax
   140001d54:	83 f8 09             	cmp    $0x9,%eax
   140001d57:	0f 87 93 00 00 00    	ja     140001df0 <_gnu_exception_handler+0xd0>
   140001d5d:	48 8d 15 bc 75 00 00 	lea    0x75bc(%rip),%rdx        # 140009320 <.rdata>
   140001d64:	48 63 04 82          	movslq (%rdx,%rax,4),%rax
   140001d68:	48 01 d0             	add    %rdx,%rax
   140001d6b:	ff e0                	jmp    *%rax
   140001d6d:	0f 1f 00             	nopl   (%rax)
   140001d70:	31 d2                	xor    %edx,%edx
   140001d72:	b9 08 00 00 00       	mov    $0x8,%ecx
   140001d77:	e8 7c 5e 00 00       	call   140007bf8 <signal>
   140001d7c:	48 83 f8 01          	cmp    $0x1,%rax
   140001d80:	0f 84 3e 01 00 00    	je     140001ec4 <_gnu_exception_handler+0x1a4>
   140001d86:	48 85 c0             	test   %rax,%rax
   140001d89:	0f 85 01 01 00 00    	jne    140001e90 <_gnu_exception_handler+0x170>
   140001d8f:	48 8b 05 2a b3 00 00 	mov    0xb32a(%rip),%rax        # 14000d0c0 <__mingw_oldexcpt_handler>
   140001d96:	48 85 c0             	test   %rax,%rax
   140001d99:	74 75                	je     140001e10 <_gnu_exception_handler+0xf0>
   140001d9b:	48 89 d9             	mov    %rbx,%rcx
   140001d9e:	48 83 c4 20          	add    $0x20,%rsp
   140001da2:	5b                   	pop    %rbx
   140001da3:	48 ff e0             	rex.W jmp *%rax
   140001da6:	66 2e 0f 1f 84 00 00 	cs nopw 0x0(%rax,%rax,1)
   140001dad:	00 00 00 
   140001db0:	3d 05 00 00 c0       	cmp    $0xc0000005,%eax
   140001db5:	0f 84 a5 00 00 00    	je     140001e60 <_gnu_exception_handler+0x140>
   140001dbb:	76 63                	jbe    140001e20 <_gnu_exception_handler+0x100>
   140001dbd:	3d 08 00 00 c0       	cmp    $0xc0000008,%eax
   140001dc2:	74 2c                	je     140001df0 <_gnu_exception_handler+0xd0>
   140001dc4:	3d 1d 00 00 c0       	cmp    $0xc000001d,%eax
   140001dc9:	75 c4                	jne    140001d8f <_gnu_exception_handler+0x6f>
   140001dcb:	31 d2                	xor    %edx,%edx
   140001dcd:	b9 04 00 00 00       	mov    $0x4,%ecx
   140001dd2:	e8 21 5e 00 00       	call   140007bf8 <signal>
   140001dd7:	48 83 f8 01          	cmp    $0x1,%rax
   140001ddb:	0f 84 cf 00 00 00    	je     140001eb0 <_gnu_exception_handler+0x190>
   140001de1:	48 85 c0             	test   %rax,%rax
   140001de4:	74 a9                	je     140001d8f <_gnu_exception_handler+0x6f>
   140001de6:	b9 04 00 00 00       	mov    $0x4,%ecx
   140001deb:	ff d0                	call   *%rax
   140001ded:	0f 1f 00             	nopl   (%rax)
   140001df0:	b8 ff ff ff ff       	mov    $0xffffffff,%eax
   140001df5:	eb 1b                	jmp    140001e12 <_gnu_exception_handler+0xf2>
   140001df7:	66 0f 1f 84 00 00 00 	nopw   0x0(%rax,%rax,1)
   140001dfe:	00 00 
   140001e00:	f6 42 04 01          	testb  $0x1,0x4(%rdx)
   140001e04:	0f 85 37 ff ff ff    	jne    140001d41 <_gnu_exception_handler+0x21>
   140001e0a:	eb e4                	jmp    140001df0 <_gnu_exception_handler+0xd0>
   140001e0c:	0f 1f 40 00          	nopl   0x0(%rax)
   140001e10:	31 c0                	xor    %eax,%eax
   140001e12:	48 83 c4 20          	add    $0x20,%rsp
   140001e16:	5b                   	pop    %rbx
   140001e17:	c3                   	ret
   140001e18:	0f 1f 84 00 00 00 00 	nopl   0x0(%rax,%rax,1)
   140001e1f:	00 
   140001e20:	3d 02 00 00 80       	cmp    $0x80000002,%eax
   140001e25:	0f 85 64 ff ff ff    	jne    140001d8f <_gnu_exception_handler+0x6f>
   140001e2b:	eb c3                	jmp    140001df0 <_gnu_exception_handler+0xd0>
   140001e2d:	0f 1f 00             	nopl   (%rax)
   140001e30:	31 d2                	xor    %edx,%edx
   140001e32:	b9 08 00 00 00       	mov    $0x8,%ecx
   140001e37:	e8 bc 5d 00 00       	call   140007bf8 <signal>
   140001e3c:	48 83 f8 01          	cmp    $0x1,%rax
   140001e40:	0f 85 40 ff ff ff    	jne    140001d86 <_gnu_exception_handler+0x66>
   140001e46:	ba 01 00 00 00       	mov    $0x1,%edx
   140001e4b:	b9 08 00 00 00       	mov    $0x8,%ecx
   140001e50:	e8 a3 5d 00 00       	call   140007bf8 <signal>
   140001e55:	eb 99                	jmp    140001df0 <_gnu_exception_handler+0xd0>
   140001e57:	66 0f 1f 84 00 00 00 	nopw   0x0(%rax,%rax,1)
   140001e5e:	00 00 
   140001e60:	31 d2                	xor    %edx,%edx
   140001e62:	b9 0b 00 00 00       	mov    $0xb,%ecx
   140001e67:	e8 8c 5d 00 00       	call   140007bf8 <signal>
   140001e6c:	48 83 f8 01          	cmp    $0x1,%rax
   140001e70:	74 2a                	je     140001e9c <_gnu_exception_handler+0x17c>
   140001e72:	48 85 c0             	test   %rax,%rax
   140001e75:	0f 84 14 ff ff ff    	je     140001d8f <_gnu_exception_handler+0x6f>
   140001e7b:	b9 0b 00 00 00       	mov    $0xb,%ecx
   140001e80:	ff d0                	call   *%rax
   140001e82:	e9 69 ff ff ff       	jmp    140001df0 <_gnu_exception_handler+0xd0>
   140001e87:	66 0f 1f 84 00 00 00 	nopw   0x0(%rax,%rax,1)
   140001e8e:	00 00 
   140001e90:	b9 08 00 00 00       	mov    $0x8,%ecx
   140001e95:	ff d0                	call   *%rax
   140001e97:	e9 54 ff ff ff       	jmp    140001df0 <_gnu_exception_handler+0xd0>
   140001e9c:	ba 01 00 00 00       	mov    $0x1,%edx
   140001ea1:	b9 0b 00 00 00       	mov    $0xb,%ecx
   140001ea6:	e8 4d 5d 00 00       	call   140007bf8 <signal>
   140001eab:	e9 40 ff ff ff       	jmp    140001df0 <_gnu_exception_handler+0xd0>
   140001eb0:	ba 01 00 00 00       	mov    $0x1,%edx
   140001eb5:	b9 04 00 00 00       	mov    $0x4,%ecx
   140001eba:	e8 39 5d 00 00       	call   140007bf8 <signal>
   140001ebf:	e9 2c ff ff ff       	jmp    140001df0 <_gnu_exception_handler+0xd0>
   140001ec4:	ba 01 00 00 00       	mov    $0x1,%edx
   140001ec9:	b9 08 00 00 00       	mov    $0x8,%ecx
   140001ece:	e8 25 5d 00 00       	call   140007bf8 <signal>
   140001ed3:	e8 a8 f8 ff ff       	call   140001780 <_fpreset>
   140001ed8:	e9 13 ff ff ff       	jmp    140001df0 <_gnu_exception_handler+0xd0>
   140001edd:	90                   	nop
   140001ede:	90                   	nop
   140001edf:	90                   	nop

0000000140001ee0 <__mingwthr_run_key_dtors.part.0>:
   140001ee0:	41 54                	push   %r12
   140001ee2:	55                   	push   %rbp
   140001ee3:	57                   	push   %rdi
   140001ee4:	56                   	push   %rsi
   140001ee5:	53                   	push   %rbx
   140001ee6:	48 83 ec 20          	sub    $0x20,%rsp
   140001eea:	4c 8d 25 0f b2 00 00 	lea    0xb20f(%rip),%r12        # 14000d100 <__mingwthr_cs>
   140001ef1:	4c 89 e1             	mov    %r12,%rcx
   140001ef4:	ff 15 d6 c2 00 00    	call   *0xc2d6(%rip)        # 14000e1d0 <__imp_EnterCriticalSection>
   140001efa:	48 8b 1d df b1 00 00 	mov    0xb1df(%rip),%rbx        # 14000d0e0 <key_dtor_list>
   140001f01:	48 85 db             	test   %rbx,%rbx
   140001f04:	74 36                	je     140001f3c <__mingwthr_run_key_dtors.part.0+0x5c>
   140001f06:	48 8b 2d 03 c3 00 00 	mov    0xc303(%rip),%rbp        # 14000e210 <__imp_TlsGetValue>
   140001f0d:	48 8b 3d c4 c2 00 00 	mov    0xc2c4(%rip),%rdi        # 14000e1d8 <__imp_GetLastError>
   140001f14:	0f 1f 40 00          	nopl   0x0(%rax)
   140001f18:	8b 0b                	mov    (%rbx),%ecx
   140001f1a:	ff d5                	call   *%rbp
   140001f1c:	48 89 c6             	mov    %rax,%rsi
   140001f1f:	ff d7                	call   *%rdi
   140001f21:	48 85 f6             	test   %rsi,%rsi
   140001f24:	74 0d                	je     140001f33 <__mingwthr_run_key_dtors.part.0+0x53>
   140001f26:	85 c0                	test   %eax,%eax
   140001f28:	75 09                	jne    140001f33 <__mingwthr_run_key_dtors.part.0+0x53>
   140001f2a:	48 8b 43 08          	mov    0x8(%rbx),%rax
   140001f2e:	48 89 f1             	mov    %rsi,%rcx
   140001f31:	ff d0                	call   *%rax
   140001f33:	48 8b 5b 10          	mov    0x10(%rbx),%rbx
   140001f37:	48 85 db             	test   %rbx,%rbx
   140001f3a:	75 dc                	jne    140001f18 <__mingwthr_run_key_dtors.part.0+0x38>
   140001f3c:	4c 89 e1             	mov    %r12,%rcx
   140001f3f:	48 83 c4 20          	add    $0x20,%rsp
   140001f43:	5b                   	pop    %rbx
   140001f44:	5e                   	pop    %rsi
   140001f45:	5f                   	pop    %rdi
   140001f46:	5d                   	pop    %rbp
   140001f47:	41 5c                	pop    %r12
   140001f49:	48 ff 25 a0 c2 00 00 	rex.W jmp *0xc2a0(%rip)        # 14000e1f0 <__imp_LeaveCriticalSection>

0000000140001f50 <___w64_mingwthr_add_key_dtor>:
   140001f50:	57                   	push   %rdi
   140001f51:	56                   	push   %rsi
   140001f52:	53                   	push   %rbx
   140001f53:	48 83 ec 20          	sub    $0x20,%rsp
   140001f57:	8b 05 8b b1 00 00    	mov    0xb18b(%rip),%eax        # 14000d0e8 <__mingwthr_cs_init>
   140001f5d:	89 cf                	mov    %ecx,%edi
   140001f5f:	48 89 d6             	mov    %rdx,%rsi
   140001f62:	85 c0                	test   %eax,%eax
   140001f64:	75 0a                	jne    140001f70 <___w64_mingwthr_add_key_dtor+0x20>
   140001f66:	31 c0                	xor    %eax,%eax
   140001f68:	48 83 c4 20          	add    $0x20,%rsp
   140001f6c:	5b                   	pop    %rbx
   140001f6d:	5e                   	pop    %rsi
   140001f6e:	5f                   	pop    %rdi
   140001f6f:	c3                   	ret
   140001f70:	ba 18 00 00 00       	mov    $0x18,%edx
   140001f75:	b9 01 00 00 00       	mov    $0x1,%ecx
   140001f7a:	e8 29 5c 00 00       	call   140007ba8 <calloc>
   140001f7f:	48 89 c3             	mov    %rax,%rbx
   140001f82:	48 85 c0             	test   %rax,%rax
   140001f85:	74 33                	je     140001fba <___w64_mingwthr_add_key_dtor+0x6a>
   140001f87:	48 89 70 08          	mov    %rsi,0x8(%rax)
   140001f8b:	48 8d 35 6e b1 00 00 	lea    0xb16e(%rip),%rsi        # 14000d100 <__mingwthr_cs>
   140001f92:	89 38                	mov    %edi,(%rax)
   140001f94:	48 89 f1             	mov    %rsi,%rcx
   140001f97:	ff 15 33 c2 00 00    	call   *0xc233(%rip)        # 14000e1d0 <__imp_EnterCriticalSection>
   140001f9d:	48 8b 05 3c b1 00 00 	mov    0xb13c(%rip),%rax        # 14000d0e0 <key_dtor_list>
   140001fa4:	48 89 f1             	mov    %rsi,%rcx
   140001fa7:	48 89 1d 32 b1 00 00 	mov    %rbx,0xb132(%rip)        # 14000d0e0 <key_dtor_list>
   140001fae:	48 89 43 10          	mov    %rax,0x10(%rbx)
   140001fb2:	ff 15 38 c2 00 00    	call   *0xc238(%rip)        # 14000e1f0 <__imp_LeaveCriticalSection>
   140001fb8:	eb ac                	jmp    140001f66 <___w64_mingwthr_add_key_dtor+0x16>
   140001fba:	83 c8 ff             	or     $0xffffffff,%eax
   140001fbd:	eb a9                	jmp    140001f68 <___w64_mingwthr_add_key_dtor+0x18>
   140001fbf:	90                   	nop

0000000140001fc0 <___w64_mingwthr_remove_key_dtor>:
   140001fc0:	56                   	push   %rsi
   140001fc1:	53                   	push   %rbx
   140001fc2:	48 83 ec 28          	sub    $0x28,%rsp
   140001fc6:	8b 05 1c b1 00 00    	mov    0xb11c(%rip),%eax        # 14000d0e8 <__mingwthr_cs_init>
   140001fcc:	89 cb                	mov    %ecx,%ebx
   140001fce:	85 c0                	test   %eax,%eax
   140001fd0:	75 0e                	jne    140001fe0 <___w64_mingwthr_remove_key_dtor+0x20>
   140001fd2:	31 c0                	xor    %eax,%eax
   140001fd4:	48 83 c4 28          	add    $0x28,%rsp
   140001fd8:	5b                   	pop    %rbx
   140001fd9:	5e                   	pop    %rsi
   140001fda:	c3                   	ret
   140001fdb:	0f 1f 44 00 00       	nopl   0x0(%rax,%rax,1)
   140001fe0:	48 8d 35 19 b1 00 00 	lea    0xb119(%rip),%rsi        # 14000d100 <__mingwthr_cs>
   140001fe7:	48 89 f1             	mov    %rsi,%rcx
   140001fea:	ff 15 e0 c1 00 00    	call   *0xc1e0(%rip)        # 14000e1d0 <__imp_EnterCriticalSection>
   140001ff0:	48 8b 0d e9 b0 00 00 	mov    0xb0e9(%rip),%rcx        # 14000d0e0 <key_dtor_list>
   140001ff7:	48 85 c9             	test   %rcx,%rcx
   140001ffa:	74 27                	je     140002023 <___w64_mingwthr_remove_key_dtor+0x63>
   140001ffc:	31 d2                	xor    %edx,%edx
   140001ffe:	eb 0b                	jmp    14000200b <___w64_mingwthr_remove_key_dtor+0x4b>
   140002000:	48 89 ca             	mov    %rcx,%rdx
   140002003:	48 85 c0             	test   %rax,%rax
   140002006:	74 1b                	je     140002023 <___w64_mingwthr_remove_key_dtor+0x63>
   140002008:	48 89 c1             	mov    %rax,%rcx
   14000200b:	8b 01                	mov    (%rcx),%eax
   14000200d:	39 d8                	cmp    %ebx,%eax
   14000200f:	48 8b 41 10          	mov    0x10(%rcx),%rax
   140002013:	75 eb                	jne    140002000 <___w64_mingwthr_remove_key_dtor+0x40>
   140002015:	48 85 d2             	test   %rdx,%rdx
   140002018:	74 1e                	je     140002038 <___w64_mingwthr_remove_key_dtor+0x78>
   14000201a:	48 89 42 10          	mov    %rax,0x10(%rdx)
   14000201e:	e8 a5 5b 00 00       	call   140007bc8 <free>
   140002023:	48 89 f1             	mov    %rsi,%rcx
   140002026:	ff 15 c4 c1 00 00    	call   *0xc1c4(%rip)        # 14000e1f0 <__imp_LeaveCriticalSection>
   14000202c:	31 c0                	xor    %eax,%eax
   14000202e:	48 83 c4 28          	add    $0x28,%rsp
   140002032:	5b                   	pop    %rbx
   140002033:	5e                   	pop    %rsi
   140002034:	c3                   	ret
   140002035:	0f 1f 00             	nopl   (%rax)
   140002038:	48 89 05 a1 b0 00 00 	mov    %rax,0xb0a1(%rip)        # 14000d0e0 <key_dtor_list>
   14000203f:	eb dd                	jmp    14000201e <___w64_mingwthr_remove_key_dtor+0x5e>
   140002041:	66 66 2e 0f 1f 84 00 	data16 cs nopw 0x0(%rax,%rax,1)
   140002048:	00 00 00 00 
   14000204c:	0f 1f 40 00          	nopl   0x0(%rax)

0000000140002050 <__mingw_TLScallback>:
   140002050:	53                   	push   %rbx
   140002051:	48 83 ec 20          	sub    $0x20,%rsp
   140002055:	83 fa 02             	cmp    $0x2,%edx
   140002058:	0f 84 b2 00 00 00    	je     140002110 <__mingw_TLScallback+0xc0>
   14000205e:	77 30                	ja     140002090 <__mingw_TLScallback+0x40>
   140002060:	85 d2                	test   %edx,%edx
   140002062:	74 4c                	je     1400020b0 <__mingw_TLScallback+0x60>
   140002064:	8b 05 7e b0 00 00    	mov    0xb07e(%rip),%eax        # 14000d0e8 <__mingwthr_cs_init>
   14000206a:	85 c0                	test   %eax,%eax
   14000206c:	0f 84 be 00 00 00    	je     140002130 <__mingw_TLScallback+0xe0>
   140002072:	c7 05 6c b0 00 00 01 	movl   $0x1,0xb06c(%rip)        # 14000d0e8 <__mingwthr_cs_init>
   140002079:	00 00 00 
   14000207c:	b8 01 00 00 00       	mov    $0x1,%eax
   140002081:	48 83 c4 20          	add    $0x20,%rsp
   140002085:	5b                   	pop    %rbx
   140002086:	c3                   	ret
   140002087:	66 0f 1f 84 00 00 00 	nopw   0x0(%rax,%rax,1)
   14000208e:	00 00 
   140002090:	83 fa 03             	cmp    $0x3,%edx
   140002093:	75 e7                	jne    14000207c <__mingw_TLScallback+0x2c>
   140002095:	8b 05 4d b0 00 00    	mov    0xb04d(%rip),%eax        # 14000d0e8 <__mingwthr_cs_init>
   14000209b:	85 c0                	test   %eax,%eax
   14000209d:	74 dd                	je     14000207c <__mingw_TLScallback+0x2c>
   14000209f:	e8 3c fe ff ff       	call   140001ee0 <__mingwthr_run_key_dtors.part.0>
   1400020a4:	eb d6                	jmp    14000207c <__mingw_TLScallback+0x2c>
   1400020a6:	66 2e 0f 1f 84 00 00 	cs nopw 0x0(%rax,%rax,1)
   1400020ad:	00 00 00 
   1400020b0:	8b 05 32 b0 00 00    	mov    0xb032(%rip),%eax        # 14000d0e8 <__mingwthr_cs_init>
   1400020b6:	85 c0                	test   %eax,%eax
   1400020b8:	75 66                	jne    140002120 <__mingw_TLScallback+0xd0>
   1400020ba:	8b 05 28 b0 00 00    	mov    0xb028(%rip),%eax        # 14000d0e8 <__mingwthr_cs_init>
   1400020c0:	83 f8 01             	cmp    $0x1,%eax
   1400020c3:	75 b7                	jne    14000207c <__mingw_TLScallback+0x2c>
   1400020c5:	48 8b 1d 14 b0 00 00 	mov    0xb014(%rip),%rbx        # 14000d0e0 <key_dtor_list>
   1400020cc:	48 85 db             	test   %rbx,%rbx
   1400020cf:	74 18                	je     1400020e9 <__mingw_TLScallback+0x99>
   1400020d1:	0f 1f 80 00 00 00 00 	nopl   0x0(%rax)
   1400020d8:	48 89 d9             	mov    %rbx,%rcx
   1400020db:	48 8b 5b 10          	mov    0x10(%rbx),%rbx
   1400020df:	e8 e4 5a 00 00       	call   140007bc8 <free>
   1400020e4:	48 85 db             	test   %rbx,%rbx
   1400020e7:	75 ef                	jne    1400020d8 <__mingw_TLScallback+0x88>
   1400020e9:	48 8d 0d 10 b0 00 00 	lea    0xb010(%rip),%rcx        # 14000d100 <__mingwthr_cs>
   1400020f0:	48 c7 05 e5 af 00 00 	movq   $0x0,0xafe5(%rip)        # 14000d0e0 <key_dtor_list>
   1400020f7:	00 00 00 00 
   1400020fb:	c7 05 e3 af 00 00 00 	movl   $0x0,0xafe3(%rip)        # 14000d0e8 <__mingwthr_cs_init>
   140002102:	00 00 00 
   140002105:	ff 15 bd c0 00 00    	call   *0xc0bd(%rip)        # 14000e1c8 <__IAT_start__>
   14000210b:	e9 6c ff ff ff       	jmp    14000207c <__mingw_TLScallback+0x2c>
   140002110:	e8 6b f6 ff ff       	call   140001780 <_fpreset>
   140002115:	b8 01 00 00 00       	mov    $0x1,%eax
   14000211a:	48 83 c4 20          	add    $0x20,%rsp
   14000211e:	5b                   	pop    %rbx
   14000211f:	c3                   	ret
   140002120:	e8 bb fd ff ff       	call   140001ee0 <__mingwthr_run_key_dtors.part.0>
   140002125:	eb 93                	jmp    1400020ba <__mingw_TLScallback+0x6a>
   140002127:	66 0f 1f 84 00 00 00 	nopw   0x0(%rax,%rax,1)
   14000212e:	00 00 
   140002130:	48 8d 0d c9 af 00 00 	lea    0xafc9(%rip),%rcx        # 14000d100 <__mingwthr_cs>
   140002137:	ff 15 a3 c0 00 00    	call   *0xc0a3(%rip)        # 14000e1e0 <__imp_InitializeCriticalSection>
   14000213d:	e9 30 ff ff ff       	jmp    140002072 <__mingw_TLScallback+0x22>
   140002142:	90                   	nop
   140002143:	90                   	nop
   140002144:	90                   	nop
   140002145:	90                   	nop
   140002146:	90                   	nop
   140002147:	90                   	nop
   140002148:	90                   	nop
   140002149:	90                   	nop
   14000214a:	90                   	nop
   14000214b:	90                   	nop
   14000214c:	90                   	nop
   14000214d:	90                   	nop
   14000214e:	90                   	nop
   14000214f:	90                   	nop

0000000140002150 <_ValidateImageBase>:
   140002150:	31 c0                	xor    %eax,%eax
   140002152:	66 81 39 4d 5a       	cmpw   $0x5a4d,(%rcx)
   140002157:	75 0f                	jne    140002168 <_ValidateImageBase+0x18>
   140002159:	48 63 51 3c          	movslq 0x3c(%rcx),%rdx
   14000215d:	48 01 d1             	add    %rdx,%rcx
   140002160:	81 39 50 45 00 00    	cmpl   $0x4550,(%rcx)
   140002166:	74 08                	je     140002170 <_ValidateImageBase+0x20>
   140002168:	c3                   	ret
   140002169:	0f 1f 80 00 00 00 00 	nopl   0x0(%rax)
   140002170:	31 c0                	xor    %eax,%eax
   140002172:	66 81 79 18 0b 02    	cmpw   $0x20b,0x18(%rcx)
   140002178:	0f 94 c0             	sete   %al
   14000217b:	c3                   	ret
   14000217c:	0f 1f 40 00          	nopl   0x0(%rax)

0000000140002180 <_FindPESection>:
   140002180:	48 63 41 3c          	movslq 0x3c(%rcx),%rax
   140002184:	48 01 c1             	add    %rax,%rcx
   140002187:	0f b7 41 14          	movzwl 0x14(%rcx),%eax
   14000218b:	44 0f b7 41 06       	movzwl 0x6(%rcx),%r8d
   140002190:	48 8d 44 01 18       	lea    0x18(%rcx,%rax,1),%rax
   140002195:	66 45 85 c0          	test   %r8w,%r8w
   140002199:	74 32                	je     1400021cd <_FindPESection+0x4d>
   14000219b:	41 8d 48 ff          	lea    -0x1(%r8),%ecx
   14000219f:	48 8d 0c 89          	lea    (%rcx,%rcx,4),%rcx
   1400021a3:	4c 8d 4c c8 28       	lea    0x28(%rax,%rcx,8),%r9
   1400021a8:	0f 1f 84 00 00 00 00 	nopl   0x0(%rax,%rax,1)
   1400021af:	00 
   1400021b0:	44 8b 40 0c          	mov    0xc(%rax),%r8d
   1400021b4:	4c 89 c1             	mov    %r8,%rcx
   1400021b7:	4c 39 c2             	cmp    %r8,%rdx
   1400021ba:	72 08                	jb     1400021c4 <_FindPESection+0x44>
   1400021bc:	03 48 08             	add    0x8(%rax),%ecx
   1400021bf:	48 39 ca             	cmp    %rcx,%rdx
   1400021c2:	72 0b                	jb     1400021cf <_FindPESection+0x4f>
   1400021c4:	48 83 c0 28          	add    $0x28,%rax
   1400021c8:	4c 39 c8             	cmp    %r9,%rax
   1400021cb:	75 e3                	jne    1400021b0 <_FindPESection+0x30>
   1400021cd:	31 c0                	xor    %eax,%eax
   1400021cf:	c3                   	ret

00000001400021d0 <_FindPESectionByName>:
   1400021d0:	57                   	push   %rdi
   1400021d1:	56                   	push   %rsi
   1400021d2:	53                   	push   %rbx
   1400021d3:	48 83 ec 20          	sub    $0x20,%rsp
   1400021d7:	48 89 ce             	mov    %rcx,%rsi
   1400021da:	e8 29 5a 00 00       	call   140007c08 <strlen>
   1400021df:	48 83 f8 08          	cmp    $0x8,%rax
   1400021e3:	77 7b                	ja     140002260 <_FindPESectionByName+0x90>
   1400021e5:	48 8b 15 24 75 00 00 	mov    0x7524(%rip),%rdx        # 140009710 <.refptr.__ImageBase>
   1400021ec:	31 db                	xor    %ebx,%ebx
   1400021ee:	66 81 3a 4d 5a       	cmpw   $0x5a4d,(%rdx)
   1400021f3:	75 59                	jne    14000224e <_FindPESectionByName+0x7e>
   1400021f5:	48 63 42 3c          	movslq 0x3c(%rdx),%rax
   1400021f9:	48 01 d0             	add    %rdx,%rax
   1400021fc:	81 38 50 45 00 00    	cmpl   $0x4550,(%rax)
   140002202:	75 4a                	jne    14000224e <_FindPESectionByName+0x7e>
   140002204:	66 81 78 18 0b 02    	cmpw   $0x20b,0x18(%rax)
   14000220a:	75 42                	jne    14000224e <_FindPESectionByName+0x7e>
   14000220c:	0f b7 50 14          	movzwl 0x14(%rax),%edx
   140002210:	48 8d 5c 10 18       	lea    0x18(%rax,%rdx,1),%rbx
   140002215:	0f b7 50 06          	movzwl 0x6(%rax),%edx
   140002219:	66 85 d2             	test   %dx,%dx
   14000221c:	74 42                	je     140002260 <_FindPESectionByName+0x90>
   14000221e:	8d 42 ff             	lea    -0x1(%rdx),%eax
   140002221:	48 8d 04 80          	lea    (%rax,%rax,4),%rax
   140002225:	48 8d 7c c3 28       	lea    0x28(%rbx,%rax,8),%rdi
   14000222a:	eb 0d                	jmp    140002239 <_FindPESectionByName+0x69>
   14000222c:	0f 1f 40 00          	nopl   0x0(%rax)
   140002230:	48 83 c3 28          	add    $0x28,%rbx
   140002234:	48 39 fb             	cmp    %rdi,%rbx
   140002237:	74 27                	je     140002260 <_FindPESectionByName+0x90>
   140002239:	41 b8 08 00 00 00    	mov    $0x8,%r8d
   14000223f:	48 89 f2             	mov    %rsi,%rdx
   140002242:	48 89 d9             	mov    %rbx,%rcx
   140002245:	e8 c6 59 00 00       	call   140007c10 <strncmp>
   14000224a:	85 c0                	test   %eax,%eax
   14000224c:	75 e2                	jne    140002230 <_FindPESectionByName+0x60>
   14000224e:	48 89 d8             	mov    %rbx,%rax
   140002251:	48 83 c4 20          	add    $0x20,%rsp
   140002255:	5b                   	pop    %rbx
   140002256:	5e                   	pop    %rsi
   140002257:	5f                   	pop    %rdi
   140002258:	c3                   	ret
   140002259:	0f 1f 80 00 00 00 00 	nopl   0x0(%rax)
   140002260:	31 db                	xor    %ebx,%ebx
   140002262:	48 89 d8             	mov    %rbx,%rax
   140002265:	48 83 c4 20          	add    $0x20,%rsp
   140002269:	5b                   	pop    %rbx
   14000226a:	5e                   	pop    %rsi
   14000226b:	5f                   	pop    %rdi
   14000226c:	c3                   	ret
   14000226d:	0f 1f 00             	nopl   (%rax)

0000000140002270 <__mingw_GetSectionForAddress>:
   140002270:	48 8b 15 99 74 00 00 	mov    0x7499(%rip),%rdx        # 140009710 <.refptr.__ImageBase>
   140002277:	31 c0                	xor    %eax,%eax
   140002279:	66 81 3a 4d 5a       	cmpw   $0x5a4d,(%rdx)
   14000227e:	75 10                	jne    140002290 <__mingw_GetSectionForAddress+0x20>
   140002280:	4c 63 42 3c          	movslq 0x3c(%rdx),%r8
   140002284:	49 01 d0             	add    %rdx,%r8
   140002287:	41 81 38 50 45 00 00 	cmpl   $0x4550,(%r8)
   14000228e:	74 08                	je     140002298 <__mingw_GetSectionForAddress+0x28>
   140002290:	c3                   	ret
   140002291:	0f 1f 80 00 00 00 00 	nopl   0x0(%rax)
   140002298:	66 41 81 78 18 0b 02 	cmpw   $0x20b,0x18(%r8)
   14000229f:	75 ef                	jne    140002290 <__mingw_GetSectionForAddress+0x20>
   1400022a1:	41 0f b7 40 14       	movzwl 0x14(%r8),%eax
   1400022a6:	48 29 d1             	sub    %rdx,%rcx
   1400022a9:	49 8d 44 00 18       	lea    0x18(%r8,%rax,1),%rax
   1400022ae:	45 0f b7 40 06       	movzwl 0x6(%r8),%r8d
   1400022b3:	66 45 85 c0          	test   %r8w,%r8w
   1400022b7:	74 34                	je     1400022ed <__mingw_GetSectionForAddress+0x7d>
   1400022b9:	41 8d 50 ff          	lea    -0x1(%r8),%edx
   1400022bd:	48 8d 14 92          	lea    (%rdx,%rdx,4),%rdx
   1400022c1:	4c 8d 4c d0 28       	lea    0x28(%rax,%rdx,8),%r9
   1400022c6:	66 2e 0f 1f 84 00 00 	cs nopw 0x0(%rax,%rax,1)
   1400022cd:	00 00 00 
   1400022d0:	44 8b 40 0c          	mov    0xc(%rax),%r8d
   1400022d4:	4c 89 c2             	mov    %r8,%rdx
   1400022d7:	4c 39 c1             	cmp    %r8,%rcx
   1400022da:	72 08                	jb     1400022e4 <__mingw_GetSectionForAddress+0x74>
   1400022dc:	03 50 08             	add    0x8(%rax),%edx
   1400022df:	48 39 d1             	cmp    %rdx,%rcx
   1400022e2:	72 ac                	jb     140002290 <__mingw_GetSectionForAddress+0x20>
   1400022e4:	48 83 c0 28          	add    $0x28,%rax
   1400022e8:	4c 39 c8             	cmp    %r9,%rax
   1400022eb:	75 e3                	jne    1400022d0 <__mingw_GetSectionForAddress+0x60>
   1400022ed:	31 c0                	xor    %eax,%eax
   1400022ef:	c3                   	ret

00000001400022f0 <__mingw_GetSectionCount>:
   1400022f0:	48 8b 05 19 74 00 00 	mov    0x7419(%rip),%rax        # 140009710 <.refptr.__ImageBase>
   1400022f7:	31 c9                	xor    %ecx,%ecx
   1400022f9:	66 81 38 4d 5a       	cmpw   $0x5a4d,(%rax)
   1400022fe:	75 0f                	jne    14000230f <__mingw_GetSectionCount+0x1f>
   140002300:	48 63 50 3c          	movslq 0x3c(%rax),%rdx
   140002304:	48 01 d0             	add    %rdx,%rax
   140002307:	81 38 50 45 00 00    	cmpl   $0x4550,(%rax)
   14000230d:	74 09                	je     140002318 <__mingw_GetSectionCount+0x28>
   14000230f:	89 c8                	mov    %ecx,%eax
   140002311:	c3                   	ret
   140002312:	66 0f 1f 44 00 00    	nopw   0x0(%rax,%rax,1)
   140002318:	66 81 78 18 0b 02    	cmpw   $0x20b,0x18(%rax)
   14000231e:	75 ef                	jne    14000230f <__mingw_GetSectionCount+0x1f>
   140002320:	0f b7 48 06          	movzwl 0x6(%rax),%ecx
   140002324:	89 c8                	mov    %ecx,%eax
   140002326:	c3                   	ret
   140002327:	66 0f 1f 84 00 00 00 	nopw   0x0(%rax,%rax,1)
   14000232e:	00 00 

0000000140002330 <_FindPESectionExec>:
   140002330:	4c 8b 05 d9 73 00 00 	mov    0x73d9(%rip),%r8        # 140009710 <.refptr.__ImageBase>
   140002337:	31 c0                	xor    %eax,%eax
   140002339:	66 41 81 38 4d 5a    	cmpw   $0x5a4d,(%r8)
   14000233f:	75 0f                	jne    140002350 <_FindPESectionExec+0x20>
   140002341:	49 63 50 3c          	movslq 0x3c(%r8),%rdx
   140002345:	4c 01 c2             	add    %r8,%rdx
   140002348:	81 3a 50 45 00 00    	cmpl   $0x4550,(%rdx)
   14000234e:	74 08                	je     140002358 <_FindPESectionExec+0x28>
   140002350:	c3                   	ret
   140002351:	0f 1f 80 00 00 00 00 	nopl   0x0(%rax)
   140002358:	66 81 7a 18 0b 02    	cmpw   $0x20b,0x18(%rdx)
   14000235e:	75 f0                	jne    140002350 <_FindPESectionExec+0x20>
   140002360:	0f b7 42 14          	movzwl 0x14(%rdx),%eax
   140002364:	44 0f b7 42 06       	movzwl 0x6(%rdx),%r8d
   140002369:	48 8d 44 02 18       	lea    0x18(%rdx,%rax,1),%rax
   14000236e:	66 45 85 c0          	test   %r8w,%r8w
   140002372:	74 2c                	je     1400023a0 <_FindPESectionExec+0x70>
   140002374:	41 8d 50 ff          	lea    -0x1(%r8),%edx
   140002378:	48 8d 14 92          	lea    (%rdx,%rdx,4),%rdx
   14000237c:	48 8d 54 d0 28       	lea    0x28(%rax,%rdx,8),%rdx
   140002381:	0f 1f 80 00 00 00 00 	nopl   0x0(%rax)
   140002388:	f6 40 27 20          	testb  $0x20,0x27(%rax)
   14000238c:	74 09                	je     140002397 <_FindPESectionExec+0x67>
   14000238e:	48 85 c9             	test   %rcx,%rcx
   140002391:	74 bd                	je     140002350 <_FindPESectionExec+0x20>
   140002393:	48 83 e9 01          	sub    $0x1,%rcx
   140002397:	48 83 c0 28          	add    $0x28,%rax
   14000239b:	48 39 c2             	cmp    %rax,%rdx
   14000239e:	75 e8                	jne    140002388 <_FindPESectionExec+0x58>
   1400023a0:	31 c0                	xor    %eax,%eax
   1400023a2:	c3                   	ret
   1400023a3:	66 66 2e 0f 1f 84 00 	data16 cs nopw 0x0(%rax,%rax,1)
   1400023aa:	00 00 00 00 
   1400023ae:	66 90                	xchg   %ax,%ax

00000001400023b0 <_GetPEImageBase>:
   1400023b0:	48 8b 05 59 73 00 00 	mov    0x7359(%rip),%rax        # 140009710 <.refptr.__ImageBase>
   1400023b7:	31 d2                	xor    %edx,%edx
   1400023b9:	66 81 38 4d 5a       	cmpw   $0x5a4d,(%rax)
   1400023be:	75 0f                	jne    1400023cf <_GetPEImageBase+0x1f>
   1400023c0:	48 63 48 3c          	movslq 0x3c(%rax),%rcx
   1400023c4:	48 01 c1             	add    %rax,%rcx
   1400023c7:	81 39 50 45 00 00    	cmpl   $0x4550,(%rcx)
   1400023cd:	74 09                	je     1400023d8 <_GetPEImageBase+0x28>
   1400023cf:	48 89 d0             	mov    %rdx,%rax
   1400023d2:	c3                   	ret
   1400023d3:	0f 1f 44 00 00       	nopl   0x0(%rax,%rax,1)
   1400023d8:	66 81 79 18 0b 02    	cmpw   $0x20b,0x18(%rcx)
   1400023de:	48 0f 44 d0          	cmove  %rax,%rdx
   1400023e2:	48 89 d0             	mov    %rdx,%rax
   1400023e5:	c3                   	ret
   1400023e6:	66 2e 0f 1f 84 00 00 	cs nopw 0x0(%rax,%rax,1)
   1400023ed:	00 00 00 

00000001400023f0 <_IsNonwritableInCurrentImage>:
   1400023f0:	48 8b 15 19 73 00 00 	mov    0x7319(%rip),%rdx        # 140009710 <.refptr.__ImageBase>
   1400023f7:	31 c0                	xor    %eax,%eax
   1400023f9:	66 81 3a 4d 5a       	cmpw   $0x5a4d,(%rdx)
   1400023fe:	75 10                	jne    140002410 <_IsNonwritableInCurrentImage+0x20>
   140002400:	4c 63 42 3c          	movslq 0x3c(%rdx),%r8
   140002404:	49 01 d0             	add    %rdx,%r8
   140002407:	41 81 38 50 45 00 00 	cmpl   $0x4550,(%r8)
   14000240e:	74 08                	je     140002418 <_IsNonwritableInCurrentImage+0x28>
   140002410:	c3                   	ret
   140002411:	0f 1f 80 00 00 00 00 	nopl   0x0(%rax)
   140002418:	66 41 81 78 18 0b 02 	cmpw   $0x20b,0x18(%r8)
   14000241f:	75 ef                	jne    140002410 <_IsNonwritableInCurrentImage+0x20>
   140002421:	48 29 d1             	sub    %rdx,%rcx
   140002424:	45 0f b7 48 06       	movzwl 0x6(%r8),%r9d
   140002429:	41 0f b7 50 14       	movzwl 0x14(%r8),%edx
   14000242e:	49 8d 54 10 18       	lea    0x18(%r8,%rdx,1),%rdx
   140002433:	66 45 85 c9          	test   %r9w,%r9w
   140002437:	74 d7                	je     140002410 <_IsNonwritableInCurrentImage+0x20>
   140002439:	41 8d 41 ff          	lea    -0x1(%r9),%eax
   14000243d:	48 8d 04 80          	lea    (%rax,%rax,4),%rax
   140002441:	4c 8d 4c c2 28       	lea    0x28(%rdx,%rax,8),%r9
   140002446:	66 2e 0f 1f 84 00 00 	cs nopw 0x0(%rax,%rax,1)
   14000244d:	00 00 00 
   140002450:	44 8b 42 0c          	mov    0xc(%rdx),%r8d
   140002454:	4c 89 c0             	mov    %r8,%rax
   140002457:	4c 39 c1             	cmp    %r8,%rcx
   14000245a:	72 08                	jb     140002464 <_IsNonwritableInCurrentImage+0x74>
   14000245c:	03 42 08             	add    0x8(%rdx),%eax
   14000245f:	48 39 c1             	cmp    %rax,%rcx
   140002462:	72 0c                	jb     140002470 <_IsNonwritableInCurrentImage+0x80>
   140002464:	48 83 c2 28          	add    $0x28,%rdx
   140002468:	4c 39 ca             	cmp    %r9,%rdx
   14000246b:	75 e3                	jne    140002450 <_IsNonwritableInCurrentImage+0x60>
   14000246d:	31 c0                	xor    %eax,%eax
   14000246f:	c3                   	ret
   140002470:	8b 42 24             	mov    0x24(%rdx),%eax
   140002473:	f7 d0                	not    %eax
   140002475:	c1 e8 1f             	shr    $0x1f,%eax
   140002478:	c3                   	ret
   140002479:	0f 1f 80 00 00 00 00 	nopl   0x0(%rax)

0000000140002480 <__mingw_enum_import_library_names>:
   140002480:	4c 8b 1d 89 72 00 00 	mov    0x7289(%rip),%r11        # 140009710 <.refptr.__ImageBase>
   140002487:	45 31 c9             	xor    %r9d,%r9d
   14000248a:	66 41 81 3b 4d 5a    	cmpw   $0x5a4d,(%r11)
   140002490:	75 10                	jne    1400024a2 <__mingw_enum_import_library_names+0x22>
   140002492:	4d 63 43 3c          	movslq 0x3c(%r11),%r8
   140002496:	4d 01 d8             	add    %r11,%r8
   140002499:	41 81 38 50 45 00 00 	cmpl   $0x4550,(%r8)
   1400024a0:	74 0e                	je     1400024b0 <__mingw_enum_import_library_names+0x30>
   1400024a2:	4c 89 c8             	mov    %r9,%rax
   1400024a5:	c3                   	ret
   1400024a6:	66 2e 0f 1f 84 00 00 	cs nopw 0x0(%rax,%rax,1)
   1400024ad:	00 00 00 
   1400024b0:	66 41 81 78 18 0b 02 	cmpw   $0x20b,0x18(%r8)
   1400024b7:	75 e9                	jne    1400024a2 <__mingw_enum_import_library_names+0x22>
   1400024b9:	41 8b 80 90 00 00 00 	mov    0x90(%r8),%eax
   1400024c0:	85 c0                	test   %eax,%eax
   1400024c2:	74 de                	je     1400024a2 <__mingw_enum_import_library_names+0x22>
   1400024c4:	41 0f b7 50 14       	movzwl 0x14(%r8),%edx
   1400024c9:	45 0f b7 50 06       	movzwl 0x6(%r8),%r10d
   1400024ce:	49 8d 54 10 18       	lea    0x18(%r8,%rdx,1),%rdx
   1400024d3:	66 45 85 d2          	test   %r10w,%r10w
   1400024d7:	74 c9                	je     1400024a2 <__mingw_enum_import_library_names+0x22>
   1400024d9:	45 8d 42 ff          	lea    -0x1(%r10),%r8d
   1400024dd:	4f 8d 04 80          	lea    (%r8,%r8,4),%r8
   1400024e1:	4e 8d 54 c2 28       	lea    0x28(%rdx,%r8,8),%r10
   1400024e6:	66 2e 0f 1f 84 00 00 	cs nopw 0x0(%rax,%rax,1)
   1400024ed:	00 00 00 
   1400024f0:	44 8b 4a 0c          	mov    0xc(%rdx),%r9d
   1400024f4:	4d 89 c8             	mov    %r9,%r8
   1400024f7:	4c 39 c8             	cmp    %r9,%rax
   1400024fa:	72 09                	jb     140002505 <__mingw_enum_import_library_names+0x85>
   1400024fc:	44 03 42 08          	add    0x8(%rdx),%r8d
   140002500:	4c 39 c0             	cmp    %r8,%rax
   140002503:	72 13                	jb     140002518 <__mingw_enum_import_library_names+0x98>
   140002505:	48 83 c2 28          	add    $0x28,%rdx
   140002509:	49 39 d2             	cmp    %rdx,%r10
   14000250c:	75 e2                	jne    1400024f0 <__mingw_enum_import_library_names+0x70>
   14000250e:	45 31 c9             	xor    %r9d,%r9d
   140002511:	4c 89 c8             	mov    %r9,%rax
   140002514:	c3                   	ret
   140002515:	0f 1f 00             	nopl   (%rax)
   140002518:	4c 01 d8             	add    %r11,%rax
   14000251b:	eb 0a                	jmp    140002527 <__mingw_enum_import_library_names+0xa7>
   14000251d:	0f 1f 00             	nopl   (%rax)
   140002520:	83 e9 01             	sub    $0x1,%ecx
   140002523:	48 83 c0 14          	add    $0x14,%rax
   140002527:	44 8b 40 04          	mov    0x4(%rax),%r8d
   14000252b:	45 85 c0             	test   %r8d,%r8d
   14000252e:	75 07                	jne    140002537 <__mingw_enum_import_library_names+0xb7>
   140002530:	8b 50 0c             	mov    0xc(%rax),%edx
   140002533:	85 d2                	test   %edx,%edx
   140002535:	74 d7                	je     14000250e <__mingw_enum_import_library_names+0x8e>
   140002537:	85 c9                	test   %ecx,%ecx
   140002539:	7f e5                	jg     140002520 <__mingw_enum_import_library_names+0xa0>
   14000253b:	44 8b 48 0c          	mov    0xc(%rax),%r9d
   14000253f:	4d 01 d9             	add    %r11,%r9
   140002542:	4c 89 c8             	mov    %r9,%rax
   140002545:	c3                   	ret
   140002546:	90                   	nop
   140002547:	90                   	nop
   140002548:	90                   	nop
   140002549:	90                   	nop
   14000254a:	90                   	nop
   14000254b:	90                   	nop
   14000254c:	90                   	nop
   14000254d:	90                   	nop
   14000254e:	90                   	nop
   14000254f:	90                   	nop

0000000140002550 <___chkstk_ms>:
   140002550:	51                   	push   %rcx
   140002551:	50                   	push   %rax
   140002552:	48 3d 00 10 00 00    	cmp    $0x1000,%rax
   140002558:	48 8d 4c 24 18       	lea    0x18(%rsp),%rcx
   14000255d:	72 19                	jb     140002578 <___chkstk_ms+0x28>
   14000255f:	48 81 e9 00 10 00 00 	sub    $0x1000,%rcx
   140002566:	48 83 09 00          	orq    $0x0,(%rcx)
   14000256a:	48 2d 00 10 00 00    	sub    $0x1000,%rax
   140002570:	48 3d 00 10 00 00    	cmp    $0x1000,%rax
   140002576:	77 e7                	ja     14000255f <___chkstk_ms+0xf>
   140002578:	48 29 c1             	sub    %rax,%rcx
   14000257b:	48 83 09 00          	orq    $0x0,(%rcx)
   14000257f:	58                   	pop    %rax
   140002580:	59                   	pop    %rcx
   140002581:	c3                   	ret
   140002582:	90                   	nop
   140002583:	90                   	nop
   140002584:	90                   	nop
   140002585:	90                   	nop
   140002586:	90                   	nop
   140002587:	90                   	nop
   140002588:	90                   	nop
   140002589:	90                   	nop
   14000258a:	90                   	nop
   14000258b:	90                   	nop
   14000258c:	90                   	nop
   14000258d:	90                   	nop
   14000258e:	90                   	nop
   14000258f:	90                   	nop

0000000140002590 <__mingw_vfprintf>:
   140002590:	57                   	push   %rdi
   140002591:	56                   	push   %rsi
   140002592:	53                   	push   %rbx
   140002593:	48 83 ec 30          	sub    $0x30,%rsp
   140002597:	4c 89 c7             	mov    %r8,%rdi
   14000259a:	48 89 cb             	mov    %rcx,%rbx
   14000259d:	48 89 d6             	mov    %rdx,%rsi
   1400025a0:	e8 6b 4f 00 00       	call   140007510 <_lock_file>
   1400025a5:	48 89 7c 24 20       	mov    %rdi,0x20(%rsp)
   1400025aa:	49 89 f1             	mov    %rsi,%r9
   1400025ad:	45 31 c0             	xor    %r8d,%r8d
   1400025b0:	48 89 da             	mov    %rbx,%rdx
   1400025b3:	b9 00 60 00 00       	mov    $0x6000,%ecx
   1400025b8:	e8 e3 1b 00 00       	call   1400041a0 <__mingw_pformat>
   1400025bd:	48 89 d9             	mov    %rbx,%rcx
   1400025c0:	89 c6                	mov    %eax,%esi
   1400025c2:	e8 b9 4f 00 00       	call   140007580 <_unlock_file>
   1400025c7:	89 f0                	mov    %esi,%eax
   1400025c9:	48 83 c4 30          	add    $0x30,%rsp
   1400025cd:	5b                   	pop    %rbx
   1400025ce:	5e                   	pop    %rsi
   1400025cf:	5f                   	pop    %rdi
   1400025d0:	c3                   	ret
   1400025d1:	90                   	nop
   1400025d2:	90                   	nop
   1400025d3:	90                   	nop
   1400025d4:	90                   	nop
   1400025d5:	90                   	nop
   1400025d6:	90                   	nop
   1400025d7:	90                   	nop
   1400025d8:	90                   	nop
   1400025d9:	90                   	nop
   1400025da:	90                   	nop
   1400025db:	90                   	nop
   1400025dc:	90                   	nop
   1400025dd:	90                   	nop
   1400025de:	90                   	nop
   1400025df:	90                   	nop

00000001400025e0 <__pformat_cvt>:
   1400025e0:	48 83 ec 68          	sub    $0x68,%rsp
   1400025e4:	48 8b 02             	mov    (%rdx),%rax
   1400025e7:	8b 52 08             	mov    0x8(%rdx),%edx
   1400025ea:	41 89 d2             	mov    %edx,%r10d
   1400025ed:	41 89 cb             	mov    %ecx,%r11d
   1400025f0:	48 89 44 24 50       	mov    %rax,0x50(%rsp)
   1400025f5:	48 89 d1             	mov    %rdx,%rcx
   1400025f8:	89 54 24 58          	mov    %edx,0x58(%rsp)
   1400025fc:	66 41 81 e2 ff 7f    	and    $0x7fff,%r10w
   140002602:	75 74                	jne    140002678 <__pformat_cvt+0x98>
   140002604:	48 89 c2             	mov    %rax,%rdx
   140002607:	48 c1 ea 20          	shr    $0x20,%rdx
   14000260b:	09 d0                	or     %edx,%eax
   14000260d:	0f 84 8d 00 00 00    	je     1400026a0 <__pformat_cvt+0xc0>
   140002613:	85 d2                	test   %edx,%edx
   140002615:	0f 89 95 00 00 00    	jns    1400026b0 <__pformat_cvt+0xd0>
   14000261b:	41 8d 92 c2 bf ff ff 	lea    -0x403e(%r10),%edx
   140002622:	b8 01 00 00 00       	mov    $0x1,%eax
   140002627:	0f bf d2             	movswl %dx,%edx
   14000262a:	89 44 24 44          	mov    %eax,0x44(%rsp)
   14000262e:	81 e1 00 80 00 00    	and    $0x8000,%ecx
   140002634:	48 8b 84 24 90 00 00 	mov    0x90(%rsp),%rax
   14000263b:	00 
   14000263c:	89 08                	mov    %ecx,(%rax)
   14000263e:	48 8d 44 24 48       	lea    0x48(%rsp),%rax
   140002643:	48 8d 0d 06 5a 00 00 	lea    0x5a06(%rip),%rcx        # 140008050 <fpi.0>
   14000264a:	4c 89 4c 24 30       	mov    %r9,0x30(%rsp)
   14000264f:	4c 8d 4c 24 44       	lea    0x44(%rsp),%r9
   140002654:	44 89 44 24 28       	mov    %r8d,0x28(%rsp)
   140002659:	4c 8d 44 24 50       	lea    0x50(%rsp),%r8
   14000265e:	48 89 44 24 38       	mov    %rax,0x38(%rsp)
   140002663:	44 89 5c 24 20       	mov    %r11d,0x20(%rsp)
   140002668:	e8 73 28 00 00       	call   140004ee0 <__gdtoa>
   14000266d:	48 83 c4 68          	add    $0x68,%rsp
   140002671:	c3                   	ret
   140002672:	66 0f 1f 44 00 00    	nopw   0x0(%rax,%rax,1)
   140002678:	66 41 81 fa ff 7f    	cmp    $0x7fff,%r10w
   14000267e:	75 9b                	jne    14000261b <__pformat_cvt+0x3b>
   140002680:	48 89 c2             	mov    %rax,%rdx
   140002683:	48 c1 ea 20          	shr    $0x20,%rdx
   140002687:	81 e2 ff ff ff 7f    	and    $0x7fffffff,%edx
   14000268d:	09 c2                	or     %eax,%edx
   14000268f:	74 2f                	je     1400026c0 <__pformat_cvt+0xe0>
   140002691:	c7 44 24 44 04 00 00 	movl   $0x4,0x44(%rsp)
   140002698:	00 
   140002699:	31 d2                	xor    %edx,%edx
   14000269b:	31 c9                	xor    %ecx,%ecx
   14000269d:	eb 95                	jmp    140002634 <__pformat_cvt+0x54>
   14000269f:	90                   	nop
   1400026a0:	31 c0                	xor    %eax,%eax
   1400026a2:	31 d2                	xor    %edx,%edx
   1400026a4:	eb 84                	jmp    14000262a <__pformat_cvt+0x4a>
   1400026a6:	66 2e 0f 1f 84 00 00 	cs nopw 0x0(%rax,%rax,1)
   1400026ad:	00 00 00 
   1400026b0:	b8 02 00 00 00       	mov    $0x2,%eax
   1400026b5:	ba c3 bf ff ff       	mov    $0xffffbfc3,%edx
   1400026ba:	e9 6b ff ff ff       	jmp    14000262a <__pformat_cvt+0x4a>
   1400026bf:	90                   	nop
   1400026c0:	b8 03 00 00 00       	mov    $0x3,%eax
   1400026c5:	31 d2                	xor    %edx,%edx
   1400026c7:	e9 5e ff ff ff       	jmp    14000262a <__pformat_cvt+0x4a>
   1400026cc:	0f 1f 40 00          	nopl   0x0(%rax)

00000001400026d0 <__pformat_putc>:
   1400026d0:	53                   	push   %rbx
   1400026d1:	48 83 ec 20          	sub    $0x20,%rsp
   1400026d5:	48 89 d3             	mov    %rdx,%rbx
   1400026d8:	8b 52 08             	mov    0x8(%rdx),%edx
   1400026db:	f6 c6 40             	test   $0x40,%dh
   1400026de:	75 08                	jne    1400026e8 <__pformat_putc+0x18>
   1400026e0:	8b 43 24             	mov    0x24(%rbx),%eax
   1400026e3:	39 43 28             	cmp    %eax,0x28(%rbx)
   1400026e6:	7e 12                	jle    1400026fa <__pformat_putc+0x2a>
   1400026e8:	48 8b 03             	mov    (%rbx),%rax
   1400026eb:	80 e6 20             	and    $0x20,%dh
   1400026ee:	75 20                	jne    140002710 <__pformat_putc+0x40>
   1400026f0:	48 63 53 24          	movslq 0x24(%rbx),%rdx
   1400026f4:	88 0c 10             	mov    %cl,(%rax,%rdx,1)
   1400026f7:	8b 43 24             	mov    0x24(%rbx),%eax
   1400026fa:	83 c0 01             	add    $0x1,%eax
   1400026fd:	89 43 24             	mov    %eax,0x24(%rbx)
   140002700:	48 83 c4 20          	add    $0x20,%rsp
   140002704:	5b                   	pop    %rbx
   140002705:	c3                   	ret
   140002706:	66 2e 0f 1f 84 00 00 	cs nopw 0x0(%rax,%rax,1)
   14000270d:	00 00 00 
   140002710:	48 89 c2             	mov    %rax,%rdx
   140002713:	e8 a8 54 00 00       	call   140007bc0 <fputc>
   140002718:	8b 43 24             	mov    0x24(%rbx),%eax
   14000271b:	83 c0 01             	add    $0x1,%eax
   14000271e:	89 43 24             	mov    %eax,0x24(%rbx)
   140002721:	48 83 c4 20          	add    $0x20,%rsp
   140002725:	5b                   	pop    %rbx
   140002726:	c3                   	ret
   140002727:	66 0f 1f 84 00 00 00 	nopw   0x0(%rax,%rax,1)
   14000272e:	00 00 

0000000140002730 <__pformat_wputchars>:
   140002730:	41 57                	push   %r15
   140002732:	41 56                	push   %r14
   140002734:	41 55                	push   %r13
   140002736:	41 54                	push   %r12
   140002738:	55                   	push   %rbp
   140002739:	57                   	push   %rdi
   14000273a:	56                   	push   %rsi
   14000273b:	53                   	push   %rbx
   14000273c:	48 83 ec 48          	sub    $0x48,%rsp
   140002740:	4c 8d 6c 24 28       	lea    0x28(%rsp),%r13
   140002745:	48 8d 7c 24 30       	lea    0x30(%rsp),%rdi
   14000274a:	89 d6                	mov    %edx,%esi
   14000274c:	4c 89 c3             	mov    %r8,%rbx
   14000274f:	31 d2                	xor    %edx,%edx
   140002751:	48 89 cd             	mov    %rcx,%rbp
   140002754:	4d 89 e8             	mov    %r13,%r8
   140002757:	48 89 f9             	mov    %rdi,%rcx
   14000275a:	e8 51 4f 00 00       	call   1400076b0 <wcrtomb>
   14000275f:	8b 43 10             	mov    0x10(%rbx),%eax
   140002762:	39 c6                	cmp    %eax,%esi
   140002764:	89 c2                	mov    %eax,%edx
   140002766:	0f 4e d6             	cmovle %esi,%edx
   140002769:	85 c0                	test   %eax,%eax
   14000276b:	8b 43 0c             	mov    0xc(%rbx),%eax
   14000276e:	0f 49 f2             	cmovns %edx,%esi
   140002771:	39 f0                	cmp    %esi,%eax
   140002773:	0f 8f e2 00 00 00    	jg     14000285b <__pformat_wputchars+0x12b>
   140002779:	c7 43 0c ff ff ff ff 	movl   $0xffffffff,0xc(%rbx)
   140002780:	44 8d 66 ff          	lea    -0x1(%rsi),%r12d
   140002784:	85 f6                	test   %esi,%esi
   140002786:	0f 8e 29 01 00 00    	jle    1400028b5 <__pformat_wputchars+0x185>
   14000278c:	31 f6                	xor    %esi,%esi
   14000278e:	41 83 c4 01          	add    $0x1,%r12d
   140002792:	66 0f 1f 44 00 00    	nopw   0x0(%rax,%rax,1)
   140002798:	0f b7 54 75 00       	movzwl 0x0(%rbp,%rsi,2),%edx
   14000279d:	4d 89 e8             	mov    %r13,%r8
   1400027a0:	48 89 f9             	mov    %rdi,%rcx
   1400027a3:	e8 08 4f 00 00       	call   1400076b0 <wcrtomb>
   1400027a8:	85 c0                	test   %eax,%eax
   1400027aa:	0f 8e 8d 00 00 00    	jle    14000283d <__pformat_wputchars+0x10d>
   1400027b0:	83 e8 01             	sub    $0x1,%eax
   1400027b3:	49 89 fe             	mov    %rdi,%r14
   1400027b6:	4c 8d 7c 07 01       	lea    0x1(%rdi,%rax,1),%r15
   1400027bb:	eb 18                	jmp    1400027d5 <__pformat_wputchars+0xa5>
   1400027bd:	0f 1f 00             	nopl   (%rax)
   1400027c0:	48 63 53 24          	movslq 0x24(%rbx),%rdx
   1400027c4:	88 0c 10             	mov    %cl,(%rax,%rdx,1)
   1400027c7:	8b 43 24             	mov    0x24(%rbx),%eax
   1400027ca:	83 c0 01             	add    $0x1,%eax
   1400027cd:	89 43 24             	mov    %eax,0x24(%rbx)
   1400027d0:	4d 39 fe             	cmp    %r15,%r14
   1400027d3:	74 37                	je     14000280c <__pformat_wputchars+0xdc>
   1400027d5:	8b 53 08             	mov    0x8(%rbx),%edx
   1400027d8:	49 83 c6 01          	add    $0x1,%r14
   1400027dc:	f6 c6 40             	test   $0x40,%dh
   1400027df:	75 08                	jne    1400027e9 <__pformat_wputchars+0xb9>
   1400027e1:	8b 43 24             	mov    0x24(%rbx),%eax
   1400027e4:	39 43 28             	cmp    %eax,0x28(%rbx)
   1400027e7:	7e e1                	jle    1400027ca <__pformat_wputchars+0x9a>
   1400027e9:	41 0f be 4e ff       	movsbl -0x1(%r14),%ecx
   1400027ee:	48 8b 03             	mov    (%rbx),%rax
   1400027f1:	80 e6 20             	and    $0x20,%dh
   1400027f4:	74 ca                	je     1400027c0 <__pformat_wputchars+0x90>
   1400027f6:	48 89 c2             	mov    %rax,%rdx
   1400027f9:	e8 c2 53 00 00       	call   140007bc0 <fputc>
   1400027fe:	8b 43 24             	mov    0x24(%rbx),%eax
   140002801:	83 c0 01             	add    $0x1,%eax
   140002804:	89 43 24             	mov    %eax,0x24(%rbx)
   140002807:	4d 39 fe             	cmp    %r15,%r14
   14000280a:	75 c9                	jne    1400027d5 <__pformat_wputchars+0xa5>
   14000280c:	48 83 c6 01          	add    $0x1,%rsi
   140002810:	44 89 e0             	mov    %r12d,%eax
   140002813:	29 f0                	sub    %esi,%eax
   140002815:	85 c0                	test   %eax,%eax
   140002817:	0f 8f 7b ff ff ff    	jg     140002798 <__pformat_wputchars+0x68>
   14000281d:	8b 43 0c             	mov    0xc(%rbx),%eax
   140002820:	8d 50 ff             	lea    -0x1(%rax),%edx
   140002823:	89 53 0c             	mov    %edx,0xc(%rbx)
   140002826:	85 c0                	test   %eax,%eax
   140002828:	7e 20                	jle    14000284a <__pformat_wputchars+0x11a>
   14000282a:	66 0f 1f 44 00 00    	nopw   0x0(%rax,%rax,1)
   140002830:	48 89 da             	mov    %rbx,%rdx
   140002833:	b9 20 00 00 00       	mov    $0x20,%ecx
   140002838:	e8 93 fe ff ff       	call   1400026d0 <__pformat_putc>
   14000283d:	8b 43 0c             	mov    0xc(%rbx),%eax
   140002840:	8d 50 ff             	lea    -0x1(%rax),%edx
   140002843:	89 53 0c             	mov    %edx,0xc(%rbx)
   140002846:	85 c0                	test   %eax,%eax
   140002848:	7f e6                	jg     140002830 <__pformat_wputchars+0x100>
   14000284a:	48 83 c4 48          	add    $0x48,%rsp
   14000284e:	5b                   	pop    %rbx
   14000284f:	5e                   	pop    %rsi
   140002850:	5f                   	pop    %rdi
   140002851:	5d                   	pop    %rbp
   140002852:	41 5c                	pop    %r12
   140002854:	41 5d                	pop    %r13
   140002856:	41 5e                	pop    %r14
   140002858:	41 5f                	pop    %r15
   14000285a:	c3                   	ret
   14000285b:	29 f0                	sub    %esi,%eax
   14000285d:	89 43 0c             	mov    %eax,0xc(%rbx)
   140002860:	f6 43 09 04          	testb  $0x4,0x9(%rbx)
   140002864:	75 3a                	jne    1400028a0 <__pformat_wputchars+0x170>
   140002866:	83 e8 01             	sub    $0x1,%eax
   140002869:	89 43 0c             	mov    %eax,0xc(%rbx)
   14000286c:	0f 1f 40 00          	nopl   0x0(%rax)
   140002870:	48 89 da             	mov    %rbx,%rdx
   140002873:	b9 20 00 00 00       	mov    $0x20,%ecx
   140002878:	e8 53 fe ff ff       	call   1400026d0 <__pformat_putc>
   14000287d:	8b 43 0c             	mov    0xc(%rbx),%eax
   140002880:	8d 50 ff             	lea    -0x1(%rax),%edx
   140002883:	89 53 0c             	mov    %edx,0xc(%rbx)
   140002886:	85 c0                	test   %eax,%eax
   140002888:	75 e6                	jne    140002870 <__pformat_wputchars+0x140>
   14000288a:	44 8d 66 ff          	lea    -0x1(%rsi),%r12d
   14000288e:	85 f6                	test   %esi,%esi
   140002890:	0f 8f f6 fe ff ff    	jg     14000278c <__pformat_wputchars+0x5c>
   140002896:	eb a5                	jmp    14000283d <__pformat_wputchars+0x10d>
   140002898:	0f 1f 84 00 00 00 00 	nopl   0x0(%rax,%rax,1)
   14000289f:	00 
   1400028a0:	44 8d 66 ff          	lea    -0x1(%rsi),%r12d
   1400028a4:	85 f6                	test   %esi,%esi
   1400028a6:	0f 8f e0 fe ff ff    	jg     14000278c <__pformat_wputchars+0x5c>
   1400028ac:	83 6b 0c 01          	subl   $0x1,0xc(%rbx)
   1400028b0:	e9 7b ff ff ff       	jmp    140002830 <__pformat_wputchars+0x100>
   1400028b5:	c7 43 0c fe ff ff ff 	movl   $0xfffffffe,0xc(%rbx)
   1400028bc:	eb 8c                	jmp    14000284a <__pformat_wputchars+0x11a>
   1400028be:	66 90                	xchg   %ax,%ax

00000001400028c0 <__pformat_putchars>:
   1400028c0:	57                   	push   %rdi
   1400028c1:	56                   	push   %rsi
   1400028c2:	53                   	push   %rbx
   1400028c3:	48 83 ec 20          	sub    $0x20,%rsp
   1400028c7:	41 8b 40 10          	mov    0x10(%r8),%eax
   1400028cb:	89 d7                	mov    %edx,%edi
   1400028cd:	39 c2                	cmp    %eax,%edx
   1400028cf:	89 c2                	mov    %eax,%edx
   1400028d1:	48 89 ce             	mov    %rcx,%rsi
   1400028d4:	0f 4e d7             	cmovle %edi,%edx
   1400028d7:	85 c0                	test   %eax,%eax
   1400028d9:	41 8b 40 0c          	mov    0xc(%r8),%eax
   1400028dd:	4c 89 c3             	mov    %r8,%rbx
   1400028e0:	0f 49 fa             	cmovns %edx,%edi
   1400028e3:	39 f8                	cmp    %edi,%eax
   1400028e5:	0f 8f bd 00 00 00    	jg     1400029a8 <__pformat_putchars+0xe8>
   1400028eb:	41 c7 40 0c ff ff ff 	movl   $0xffffffff,0xc(%r8)
   1400028f2:	ff 
   1400028f3:	8d 57 ff             	lea    -0x1(%rdi),%edx
   1400028f6:	85 ff                	test   %edi,%edi
   1400028f8:	0f 84 97 00 00 00    	je     140002995 <__pformat_putchars+0xd5>
   1400028fe:	8b 43 08             	mov    0x8(%rbx),%eax
   140002901:	8d 7a 01             	lea    0x1(%rdx),%edi
   140002904:	48 01 f7             	add    %rsi,%rdi
   140002907:	eb 1f                	jmp    140002928 <__pformat_putchars+0x68>
   140002909:	0f 1f 80 00 00 00 00 	nopl   0x0(%rax)
   140002910:	48 63 43 24          	movslq 0x24(%rbx),%rax
   140002914:	88 0c 02             	mov    %cl,(%rdx,%rax,1)
   140002917:	8b 53 24             	mov    0x24(%rbx),%edx
   14000291a:	83 c2 01             	add    $0x1,%edx
   14000291d:	89 53 24             	mov    %edx,0x24(%rbx)
   140002920:	48 39 fe             	cmp    %rdi,%rsi
   140002923:	74 3c                	je     140002961 <__pformat_putchars+0xa1>
   140002925:	8b 43 08             	mov    0x8(%rbx),%eax
   140002928:	48 83 c6 01          	add    $0x1,%rsi
   14000292c:	f6 c4 40             	test   $0x40,%ah
   14000292f:	75 08                	jne    140002939 <__pformat_putchars+0x79>
   140002931:	8b 53 24             	mov    0x24(%rbx),%edx
   140002934:	39 53 28             	cmp    %edx,0x28(%rbx)
   140002937:	7e e1                	jle    14000291a <__pformat_putchars+0x5a>
   140002939:	0f be 4e ff          	movsbl -0x1(%rsi),%ecx
   14000293d:	48 8b 13             	mov    (%rbx),%rdx
   140002940:	f6 c4 20             	test   $0x20,%ah
   140002943:	74 cb                	je     140002910 <__pformat_putchars+0x50>
   140002945:	e8 76 52 00 00       	call   140007bc0 <fputc>
   14000294a:	8b 53 24             	mov    0x24(%rbx),%edx
   14000294d:	eb cb                	jmp    14000291a <__pformat_putchars+0x5a>
   14000294f:	90                   	nop
   140002950:	48 63 43 24          	movslq 0x24(%rbx),%rax
   140002954:	c6 04 02 20          	movb   $0x20,(%rdx,%rax,1)
   140002958:	8b 53 24             	mov    0x24(%rbx),%edx
   14000295b:	83 c2 01             	add    $0x1,%edx
   14000295e:	89 53 24             	mov    %edx,0x24(%rbx)
   140002961:	8b 43 0c             	mov    0xc(%rbx),%eax
   140002964:	8d 50 ff             	lea    -0x1(%rax),%edx
   140002967:	89 53 0c             	mov    %edx,0xc(%rbx)
   14000296a:	85 c0                	test   %eax,%eax
   14000296c:	7e 2e                	jle    14000299c <__pformat_putchars+0xdc>
   14000296e:	8b 43 08             	mov    0x8(%rbx),%eax
   140002971:	f6 c4 40             	test   $0x40,%ah
   140002974:	75 08                	jne    14000297e <__pformat_putchars+0xbe>
   140002976:	8b 53 24             	mov    0x24(%rbx),%edx
   140002979:	39 53 28             	cmp    %edx,0x28(%rbx)
   14000297c:	7e dd                	jle    14000295b <__pformat_putchars+0x9b>
   14000297e:	48 8b 13             	mov    (%rbx),%rdx
   140002981:	f6 c4 20             	test   $0x20,%ah
   140002984:	74 ca                	je     140002950 <__pformat_putchars+0x90>
   140002986:	b9 20 00 00 00       	mov    $0x20,%ecx
   14000298b:	e8 30 52 00 00       	call   140007bc0 <fputc>
   140002990:	8b 53 24             	mov    0x24(%rbx),%edx
   140002993:	eb c6                	jmp    14000295b <__pformat_putchars+0x9b>
   140002995:	c7 43 0c fe ff ff ff 	movl   $0xfffffffe,0xc(%rbx)
   14000299c:	48 83 c4 20          	add    $0x20,%rsp
   1400029a0:	5b                   	pop    %rbx
   1400029a1:	5e                   	pop    %rsi
   1400029a2:	5f                   	pop    %rdi
   1400029a3:	c3                   	ret
   1400029a4:	0f 1f 40 00          	nopl   0x0(%rax)
   1400029a8:	29 f8                	sub    %edi,%eax
   1400029aa:	41 89 40 0c          	mov    %eax,0xc(%r8)
   1400029ae:	89 c2                	mov    %eax,%edx
   1400029b0:	41 8b 40 08          	mov    0x8(%r8),%eax
   1400029b4:	f6 c4 04             	test   $0x4,%ah
   1400029b7:	75 37                	jne    1400029f0 <__pformat_putchars+0x130>
   1400029b9:	8d 42 ff             	lea    -0x1(%rdx),%eax
   1400029bc:	41 89 40 0c          	mov    %eax,0xc(%r8)
   1400029c0:	48 89 da             	mov    %rbx,%rdx
   1400029c3:	b9 20 00 00 00       	mov    $0x20,%ecx
   1400029c8:	e8 03 fd ff ff       	call   1400026d0 <__pformat_putc>
   1400029cd:	8b 43 0c             	mov    0xc(%rbx),%eax
   1400029d0:	8d 50 ff             	lea    -0x1(%rax),%edx
   1400029d3:	89 53 0c             	mov    %edx,0xc(%rbx)
   1400029d6:	85 c0                	test   %eax,%eax
   1400029d8:	75 e6                	jne    1400029c0 <__pformat_putchars+0x100>
   1400029da:	8d 57 ff             	lea    -0x1(%rdi),%edx
   1400029dd:	85 ff                	test   %edi,%edi
   1400029df:	0f 85 19 ff ff ff    	jne    1400028fe <__pformat_putchars+0x3e>
   1400029e5:	e9 77 ff ff ff       	jmp    140002961 <__pformat_putchars+0xa1>
   1400029ea:	66 0f 1f 44 00 00    	nopw   0x0(%rax,%rax,1)
   1400029f0:	8d 57 ff             	lea    -0x1(%rdi),%edx
   1400029f3:	85 ff                	test   %edi,%edi
   1400029f5:	0f 85 06 ff ff ff    	jne    140002901 <__pformat_putchars+0x41>
   1400029fb:	83 6b 0c 01          	subl   $0x1,0xc(%rbx)
   1400029ff:	e9 6d ff ff ff       	jmp    140002971 <__pformat_putchars+0xb1>
   140002a04:	66 66 2e 0f 1f 84 00 	data16 cs nopw 0x0(%rax,%rax,1)
   140002a0b:	00 00 00 00 
   140002a0f:	90                   	nop

0000000140002a10 <__pformat_puts>:
   140002a10:	56                   	push   %rsi
   140002a11:	53                   	push   %rbx
   140002a12:	48 83 ec 28          	sub    $0x28,%rsp
   140002a16:	48 8d 05 33 69 00 00 	lea    0x6933(%rip),%rax        # 140009350 <.rdata>
   140002a1d:	48 89 cb             	mov    %rcx,%rbx
   140002a20:	48 85 c9             	test   %rcx,%rcx
   140002a23:	48 89 d6             	mov    %rdx,%rsi
   140002a26:	48 63 52 10          	movslq 0x10(%rdx),%rdx
   140002a2a:	48 0f 44 d8          	cmove  %rax,%rbx
   140002a2e:	48 89 d9             	mov    %rbx,%rcx
   140002a31:	85 d2                	test   %edx,%edx
   140002a33:	78 1b                	js     140002a50 <__pformat_puts+0x40>
   140002a35:	e8 56 4a 00 00       	call   140007490 <strnlen>
   140002a3a:	49 89 f0             	mov    %rsi,%r8
   140002a3d:	89 c2                	mov    %eax,%edx
   140002a3f:	48 89 d9             	mov    %rbx,%rcx
   140002a42:	48 83 c4 28          	add    $0x28,%rsp
   140002a46:	5b                   	pop    %rbx
   140002a47:	5e                   	pop    %rsi
   140002a48:	e9 73 fe ff ff       	jmp    1400028c0 <__pformat_putchars>
   140002a4d:	0f 1f 00             	nopl   (%rax)
   140002a50:	e8 b3 51 00 00       	call   140007c08 <strlen>
   140002a55:	eb e3                	jmp    140002a3a <__pformat_puts+0x2a>
   140002a57:	66 0f 1f 84 00 00 00 	nopw   0x0(%rax,%rax,1)
   140002a5e:	00 00 

0000000140002a60 <__pformat_emit_inf_or_nan>:
   140002a60:	48 83 ec 38          	sub    $0x38,%rsp
   140002a64:	45 8b 50 08          	mov    0x8(%r8),%r10d
   140002a68:	41 c7 40 10 ff ff ff 	movl   $0xffffffff,0x10(%r8)
   140002a6f:	ff 
   140002a70:	85 c9                	test   %ecx,%ecx
   140002a72:	75 5c                	jne    140002ad0 <__pformat_emit_inf_or_nan+0x70>
   140002a74:	b8 2b 00 00 00       	mov    $0x2b,%eax
   140002a79:	41 f7 c2 00 01 00 00 	test   $0x100,%r10d
   140002a80:	75 53                	jne    140002ad5 <__pformat_emit_inf_or_nan+0x75>
   140002a82:	41 f6 c2 40          	test   $0x40,%r10b
   140002a86:	74 60                	je     140002ae8 <__pformat_emit_inf_or_nan+0x88>
   140002a88:	b8 20 00 00 00       	mov    $0x20,%eax
   140002a8d:	4c 8d 4c 24 2d       	lea    0x2d(%rsp),%r9
   140002a92:	4c 8d 5c 24 2c       	lea    0x2c(%rsp),%r11
   140002a97:	88 44 24 2c          	mov    %al,0x2c(%rsp)
   140002a9b:	41 83 e2 20          	and    $0x20,%r10d
   140002a9f:	31 c9                	xor    %ecx,%ecx
   140002aa1:	0f b6 04 0a          	movzbl (%rdx,%rcx,1),%eax
   140002aa5:	83 e0 df             	and    $0xffffffdf,%eax
   140002aa8:	44 09 d0             	or     %r10d,%eax
   140002aab:	41 88 04 09          	mov    %al,(%r9,%rcx,1)
   140002aaf:	48 83 c1 01          	add    $0x1,%rcx
   140002ab3:	48 83 f9 03          	cmp    $0x3,%rcx
   140002ab7:	75 e8                	jne    140002aa1 <__pformat_emit_inf_or_nan+0x41>
   140002ab9:	49 8d 51 03          	lea    0x3(%r9),%rdx
   140002abd:	4c 89 d9             	mov    %r11,%rcx
   140002ac0:	44 29 da             	sub    %r11d,%edx
   140002ac3:	e8 f8 fd ff ff       	call   1400028c0 <__pformat_putchars>
   140002ac8:	90                   	nop
   140002ac9:	48 83 c4 38          	add    $0x38,%rsp
   140002acd:	c3                   	ret
   140002ace:	66 90                	xchg   %ax,%ax
   140002ad0:	b8 2d 00 00 00       	mov    $0x2d,%eax
   140002ad5:	88 44 24 2c          	mov    %al,0x2c(%rsp)
   140002ad9:	4c 8d 4c 24 2d       	lea    0x2d(%rsp),%r9
   140002ade:	4c 8d 5c 24 2c       	lea    0x2c(%rsp),%r11
   140002ae3:	eb b6                	jmp    140002a9b <__pformat_emit_inf_or_nan+0x3b>
   140002ae5:	0f 1f 00             	nopl   (%rax)
   140002ae8:	4c 8d 5c 24 2c       	lea    0x2c(%rsp),%r11
   140002aed:	4d 89 d9             	mov    %r11,%r9
   140002af0:	eb a9                	jmp    140002a9b <__pformat_emit_inf_or_nan+0x3b>
   140002af2:	66 66 2e 0f 1f 84 00 	data16 cs nopw 0x0(%rax,%rax,1)
   140002af9:	00 00 00 00 
   140002afd:	0f 1f 00             	nopl   (%rax)

0000000140002b00 <__pformat_xint.isra.0>:
   140002b00:	55                   	push   %rbp
   140002b01:	41 57                	push   %r15
   140002b03:	41 56                	push   %r14
   140002b05:	41 55                	push   %r13
   140002b07:	41 54                	push   %r12
   140002b09:	57                   	push   %rdi
   140002b0a:	56                   	push   %rsi
   140002b0b:	53                   	push   %rbx
   140002b0c:	48 83 ec 38          	sub    $0x38,%rsp
   140002b10:	48 8d 6c 24 30       	lea    0x30(%rsp),%rbp
   140002b15:	41 89 cd             	mov    %ecx,%r13d
   140002b18:	4c 89 c3             	mov    %r8,%rbx
   140002b1b:	83 f9 6f             	cmp    $0x6f,%ecx
   140002b1e:	0f 84 cc 02 00 00    	je     140002df0 <__pformat_xint.isra.0+0x2f0>
   140002b24:	45 8b 70 10          	mov    0x10(%r8),%r14d
   140002b28:	31 c0                	xor    %eax,%eax
   140002b2a:	41 8b 78 08          	mov    0x8(%r8),%edi
   140002b2e:	45 85 f6             	test   %r14d,%r14d
   140002b31:	41 0f 49 c6          	cmovns %r14d,%eax
   140002b35:	83 c0 12             	add    $0x12,%eax
   140002b38:	f7 c7 00 10 00 00    	test   $0x1000,%edi
   140002b3e:	0f 84 e4 00 00 00    	je     140002c28 <__pformat_xint.isra.0+0x128>
   140002b44:	b9 04 00 00 00       	mov    $0x4,%ecx
   140002b49:	66 83 7b 20 00       	cmpw   $0x0,0x20(%rbx)
   140002b4e:	74 14                	je     140002b64 <__pformat_xint.isra.0+0x64>
   140002b50:	41 89 c0             	mov    %eax,%r8d
   140002b53:	41 b9 ab aa aa aa    	mov    $0xaaaaaaab,%r9d
   140002b59:	4d 0f af c1          	imul   %r9,%r8
   140002b5d:	49 c1 e8 21          	shr    $0x21,%r8
   140002b61:	44 01 c0             	add    %r8d,%eax
   140002b64:	8b 73 0c             	mov    0xc(%rbx),%esi
   140002b67:	39 c6                	cmp    %eax,%esi
   140002b69:	89 75 fc             	mov    %esi,-0x4(%rbp)
   140002b6c:	0f 4d c6             	cmovge %esi,%eax
   140002b6f:	48 98                	cltq
   140002b71:	48 83 c0 0f          	add    $0xf,%rax
   140002b75:	48 83 e0 f0          	and    $0xfffffffffffffff0,%rax
   140002b79:	e8 d2 f9 ff ff       	call   140002550 <___chkstk_ms>
   140002b7e:	45 31 c9             	xor    %r9d,%r9d
   140002b81:	48 29 c4             	sub    %rax,%rsp
   140002b84:	41 83 fd 6f          	cmp    $0x6f,%r13d
   140002b88:	41 0f 95 c1          	setne  %r9b
   140002b8c:	4c 8d 64 24 20       	lea    0x20(%rsp),%r12
   140002b91:	46 8d 0c cd 07 00 00 	lea    0x7(,%r9,8),%r9d
   140002b98:	00 
   140002b99:	48 85 d2             	test   %rdx,%rdx
   140002b9c:	0f 85 bc 00 00 00    	jne    140002c5e <__pformat_xint.isra.0+0x15e>
   140002ba2:	66 0f 1f 44 00 00    	nopw   0x0(%rax,%rax,1)
   140002ba8:	81 e7 ff f7 ff ff    	and    $0xfffff7ff,%edi
   140002bae:	89 7b 08             	mov    %edi,0x8(%rbx)
   140002bb1:	45 85 f6             	test   %r14d,%r14d
   140002bb4:	0f 8e ce 02 00 00    	jle    140002e88 <__pformat_xint.isra.0+0x388>
   140002bba:	41 8d 7e ff          	lea    -0x1(%r14),%edi
   140002bbe:	4c 89 e6             	mov    %r12,%rsi
   140002bc1:	83 c7 01             	add    $0x1,%edi
   140002bc4:	48 89 f1             	mov    %rsi,%rcx
   140002bc7:	ba 30 00 00 00       	mov    $0x30,%edx
   140002bcc:	48 63 ff             	movslq %edi,%rdi
   140002bcf:	49 89 f8             	mov    %rdi,%r8
   140002bd2:	48 01 fe             	add    %rdi,%rsi
   140002bd5:	e8 16 50 00 00       	call   140007bf0 <memset>
   140002bda:	4c 39 e6             	cmp    %r12,%rsi
   140002bdd:	0f 84 a8 02 00 00    	je     140002e8b <__pformat_xint.isra.0+0x38b>
   140002be3:	48 89 f0             	mov    %rsi,%rax
   140002be6:	8b 4d fc             	mov    -0x4(%rbp),%ecx
   140002be9:	4c 29 e0             	sub    %r12,%rax
   140002bec:	89 c2                	mov    %eax,%edx
   140002bee:	39 c8                	cmp    %ecx,%eax
   140002bf0:	0f 8c bb 02 00 00    	jl     140002eb1 <__pformat_xint.isra.0+0x3b1>
   140002bf6:	c7 43 0c ff ff ff ff 	movl   $0xffffffff,0xc(%rbx)
   140002bfd:	41 83 fd 6f          	cmp    $0x6f,%r13d
   140002c01:	0f 85 ad 03 00 00    	jne    140002fb4 <__pformat_xint.isra.0+0x4b4>
   140002c07:	49 39 f4             	cmp    %rsi,%r12
   140002c0a:	0f 83 ce 01 00 00    	jae    140002dde <__pformat_xint.isra.0+0x2de>
   140002c10:	8b 7b 08             	mov    0x8(%rbx),%edi
   140002c13:	41 bd fe ff ff ff    	mov    $0xfffffffe,%r13d
   140002c19:	41 bf ff ff ff ff    	mov    $0xffffffff,%r15d
   140002c1f:	e9 2c 01 00 00       	jmp    140002d50 <__pformat_xint.isra.0+0x250>
   140002c24:	0f 1f 40 00          	nopl   0x0(%rax)
   140002c28:	8b 4b 0c             	mov    0xc(%rbx),%ecx
   140002c2b:	39 c1                	cmp    %eax,%ecx
   140002c2d:	89 4d fc             	mov    %ecx,-0x4(%rbp)
   140002c30:	0f 4d c1             	cmovge %ecx,%eax
   140002c33:	48 98                	cltq
   140002c35:	48 83 c0 0f          	add    $0xf,%rax
   140002c39:	48 83 e0 f0          	and    $0xfffffffffffffff0,%rax
   140002c3d:	e8 0e f9 ff ff       	call   140002550 <___chkstk_ms>
   140002c42:	b9 04 00 00 00       	mov    $0x4,%ecx
   140002c47:	41 b9 0f 00 00 00    	mov    $0xf,%r9d
   140002c4d:	48 29 c4             	sub    %rax,%rsp
   140002c50:	4c 8d 64 24 20       	lea    0x20(%rsp),%r12
   140002c55:	48 85 d2             	test   %rdx,%rdx
   140002c58:	0f 84 4a ff ff ff    	je     140002ba8 <__pformat_xint.isra.0+0xa8>
   140002c5e:	45 89 ea             	mov    %r13d,%r10d
   140002c61:	4c 89 e6             	mov    %r12,%rsi
   140002c64:	41 83 e2 20          	and    $0x20,%r10d
   140002c68:	0f 1f 84 00 00 00 00 	nopl   0x0(%rax,%rax,1)
   140002c6f:	00 
   140002c70:	44 89 c8             	mov    %r9d,%eax
   140002c73:	49 89 f3             	mov    %rsi,%r11
   140002c76:	48 83 c6 01          	add    $0x1,%rsi
   140002c7a:	21 d0                	and    %edx,%eax
   140002c7c:	44 8d 40 30          	lea    0x30(%rax),%r8d
   140002c80:	83 c0 37             	add    $0x37,%eax
   140002c83:	44 09 d0             	or     %r10d,%eax
   140002c86:	45 89 c7             	mov    %r8d,%r15d
   140002c89:	41 80 f8 39          	cmp    $0x39,%r8b
   140002c8d:	41 0f 46 c7          	cmovbe %r15d,%eax
   140002c91:	48 d3 ea             	shr    %cl,%rdx
   140002c94:	88 46 ff             	mov    %al,-0x1(%rsi)
   140002c97:	48 85 d2             	test   %rdx,%rdx
   140002c9a:	75 d4                	jne    140002c70 <__pformat_xint.isra.0+0x170>
   140002c9c:	4c 39 e6             	cmp    %r12,%rsi
   140002c9f:	0f 84 03 ff ff ff    	je     140002ba8 <__pformat_xint.isra.0+0xa8>
   140002ca5:	45 85 f6             	test   %r14d,%r14d
   140002ca8:	0f 8e 72 01 00 00    	jle    140002e20 <__pformat_xint.isra.0+0x320>
   140002cae:	48 89 f2             	mov    %rsi,%rdx
   140002cb1:	44 89 f0             	mov    %r14d,%eax
   140002cb4:	4c 29 e2             	sub    %r12,%rdx
   140002cb7:	29 d0                	sub    %edx,%eax
   140002cb9:	85 c0                	test   %eax,%eax
   140002cbb:	0f 8f df 02 00 00    	jg     140002fa0 <__pformat_xint.isra.0+0x4a0>
   140002cc1:	41 83 fd 6f          	cmp    $0x6f,%r13d
   140002cc5:	0f 84 3d 02 00 00    	je     140002f08 <__pformat_xint.isra.0+0x408>
   140002ccb:	8b 45 fc             	mov    -0x4(%rbp),%eax
   140002cce:	39 c2                	cmp    %eax,%edx
   140002cd0:	0f 8d 9a 02 00 00    	jge    140002f70 <__pformat_xint.isra.0+0x470>
   140002cd6:	41 89 c7             	mov    %eax,%r15d
   140002cd9:	41 29 d7             	sub    %edx,%r15d
   140002cdc:	44 89 7b 0c          	mov    %r15d,0xc(%rbx)
   140002ce0:	f7 c7 00 08 00 00    	test   $0x800,%edi
   140002ce6:	0f 85 54 02 00 00    	jne    140002f40 <__pformat_xint.isra.0+0x440>
   140002cec:	45 85 f6             	test   %r14d,%r14d
   140002cef:	0f 88 c4 02 00 00    	js     140002fb9 <__pformat_xint.isra.0+0x4b9>
   140002cf5:	45 8d 6f ff          	lea    -0x1(%r15),%r13d
   140002cf9:	f7 c7 00 04 00 00    	test   $0x400,%edi
   140002cff:	0f 85 2b 02 00 00    	jne    140002f30 <__pformat_xint.isra.0+0x430>
   140002d05:	45 89 ef             	mov    %r13d,%r15d
   140002d08:	0f 1f 84 00 00 00 00 	nopl   0x0(%rax,%rax,1)
   140002d0f:	00 
   140002d10:	48 89 da             	mov    %rbx,%rdx
   140002d13:	b9 20 00 00 00       	mov    $0x20,%ecx
   140002d18:	e8 b3 f9 ff ff       	call   1400026d0 <__pformat_putc>
   140002d1d:	41 83 ef 01          	sub    $0x1,%r15d
   140002d21:	73 ed                	jae    140002d10 <__pformat_xint.isra.0+0x210>
   140002d23:	41 bd fe ff ff ff    	mov    $0xfffffffe,%r13d
   140002d29:	49 39 f4             	cmp    %rsi,%r12
   140002d2c:	72 1f                	jb     140002d4d <__pformat_xint.isra.0+0x24d>
   140002d2e:	e9 ab 00 00 00       	jmp    140002dde <__pformat_xint.isra.0+0x2de>
   140002d33:	0f 1f 44 00 00       	nopl   0x0(%rax,%rax,1)
   140002d38:	48 63 43 24          	movslq 0x24(%rbx),%rax
   140002d3c:	88 0c 02             	mov    %cl,(%rdx,%rax,1)
   140002d3f:	8b 43 24             	mov    0x24(%rbx),%eax
   140002d42:	83 c0 01             	add    $0x1,%eax
   140002d45:	89 43 24             	mov    %eax,0x24(%rbx)
   140002d48:	49 39 f4             	cmp    %rsi,%r12
   140002d4b:	73 38                	jae    140002d85 <__pformat_xint.isra.0+0x285>
   140002d4d:	8b 7b 08             	mov    0x8(%rbx),%edi
   140002d50:	48 83 ee 01          	sub    $0x1,%rsi
   140002d54:	f7 c7 00 40 00 00    	test   $0x4000,%edi
   140002d5a:	75 08                	jne    140002d64 <__pformat_xint.isra.0+0x264>
   140002d5c:	8b 43 24             	mov    0x24(%rbx),%eax
   140002d5f:	39 43 28             	cmp    %eax,0x28(%rbx)
   140002d62:	7e de                	jle    140002d42 <__pformat_xint.isra.0+0x242>
   140002d64:	81 e7 00 20 00 00    	and    $0x2000,%edi
   140002d6a:	0f be 0e             	movsbl (%rsi),%ecx
   140002d6d:	48 8b 13             	mov    (%rbx),%rdx
   140002d70:	74 c6                	je     140002d38 <__pformat_xint.isra.0+0x238>
   140002d72:	e8 49 4e 00 00       	call   140007bc0 <fputc>
   140002d77:	8b 43 24             	mov    0x24(%rbx),%eax
   140002d7a:	83 c0 01             	add    $0x1,%eax
   140002d7d:	89 43 24             	mov    %eax,0x24(%rbx)
   140002d80:	49 39 f4             	cmp    %rsi,%r12
   140002d83:	72 c8                	jb     140002d4d <__pformat_xint.isra.0+0x24d>
   140002d85:	45 85 ff             	test   %r15d,%r15d
   140002d88:	7f 1d                	jg     140002da7 <__pformat_xint.isra.0+0x2a7>
   140002d8a:	eb 52                	jmp    140002dde <__pformat_xint.isra.0+0x2de>
   140002d8c:	0f 1f 40 00          	nopl   0x0(%rax)
   140002d90:	48 63 43 24          	movslq 0x24(%rbx),%rax
   140002d94:	c6 04 02 20          	movb   $0x20,(%rdx,%rax,1)
   140002d98:	8b 43 24             	mov    0x24(%rbx),%eax
   140002d9b:	83 c0 01             	add    $0x1,%eax
   140002d9e:	89 43 24             	mov    %eax,0x24(%rbx)
   140002da1:	41 83 ed 01          	sub    $0x1,%r13d
   140002da5:	72 37                	jb     140002dde <__pformat_xint.isra.0+0x2de>
   140002da7:	8b 7b 08             	mov    0x8(%rbx),%edi
   140002daa:	f7 c7 00 40 00 00    	test   $0x4000,%edi
   140002db0:	75 08                	jne    140002dba <__pformat_xint.isra.0+0x2ba>
   140002db2:	8b 43 24             	mov    0x24(%rbx),%eax
   140002db5:	39 43 28             	cmp    %eax,0x28(%rbx)
   140002db8:	7e e1                	jle    140002d9b <__pformat_xint.isra.0+0x29b>
   140002dba:	81 e7 00 20 00 00    	and    $0x2000,%edi
   140002dc0:	48 8b 13             	mov    (%rbx),%rdx
   140002dc3:	74 cb                	je     140002d90 <__pformat_xint.isra.0+0x290>
   140002dc5:	b9 20 00 00 00       	mov    $0x20,%ecx
   140002dca:	e8 f1 4d 00 00       	call   140007bc0 <fputc>
   140002dcf:	8b 43 24             	mov    0x24(%rbx),%eax
   140002dd2:	83 c0 01             	add    $0x1,%eax
   140002dd5:	89 43 24             	mov    %eax,0x24(%rbx)
   140002dd8:	41 83 ed 01          	sub    $0x1,%r13d
   140002ddc:	73 c9                	jae    140002da7 <__pformat_xint.isra.0+0x2a7>
   140002dde:	48 8d 65 08          	lea    0x8(%rbp),%rsp
   140002de2:	5b                   	pop    %rbx
   140002de3:	5e                   	pop    %rsi
   140002de4:	5f                   	pop    %rdi
   140002de5:	41 5c                	pop    %r12
   140002de7:	41 5d                	pop    %r13
   140002de9:	41 5e                	pop    %r14
   140002deb:	41 5f                	pop    %r15
   140002ded:	5d                   	pop    %rbp
   140002dee:	c3                   	ret
   140002def:	90                   	nop
   140002df0:	45 8b 70 10          	mov    0x10(%r8),%r14d
   140002df4:	31 c0                	xor    %eax,%eax
   140002df6:	41 8b 78 08          	mov    0x8(%r8),%edi
   140002dfa:	45 85 f6             	test   %r14d,%r14d
   140002dfd:	41 0f 49 c6          	cmovns %r14d,%eax
   140002e01:	83 c0 18             	add    $0x18,%eax
   140002e04:	f7 c7 00 10 00 00    	test   $0x1000,%edi
   140002e0a:	74 44                	je     140002e50 <__pformat_xint.isra.0+0x350>
   140002e0c:	b9 03 00 00 00       	mov    $0x3,%ecx
   140002e11:	e9 33 fd ff ff       	jmp    140002b49 <__pformat_xint.isra.0+0x49>
   140002e16:	66 2e 0f 1f 84 00 00 	cs nopw 0x0(%rax,%rax,1)
   140002e1d:	00 00 00 
   140002e20:	41 83 fd 6f          	cmp    $0x6f,%r13d
   140002e24:	0f 84 de 00 00 00    	je     140002f08 <__pformat_xint.isra.0+0x408>
   140002e2a:	48 89 f0             	mov    %rsi,%rax
   140002e2d:	8b 4d fc             	mov    -0x4(%rbp),%ecx
   140002e30:	4c 29 e0             	sub    %r12,%rax
   140002e33:	39 c8                	cmp    %ecx,%eax
   140002e35:	0f 8d 35 01 00 00    	jge    140002f70 <__pformat_xint.isra.0+0x470>
   140002e3b:	41 89 cf             	mov    %ecx,%r15d
   140002e3e:	41 29 c7             	sub    %eax,%r15d
   140002e41:	44 89 7b 0c          	mov    %r15d,0xc(%rbx)
   140002e45:	e9 96 fe ff ff       	jmp    140002ce0 <__pformat_xint.isra.0+0x1e0>
   140002e4a:	66 0f 1f 44 00 00    	nopw   0x0(%rax,%rax,1)
   140002e50:	8b 4b 0c             	mov    0xc(%rbx),%ecx
   140002e53:	39 c1                	cmp    %eax,%ecx
   140002e55:	89 4d fc             	mov    %ecx,-0x4(%rbp)
   140002e58:	0f 4d c1             	cmovge %ecx,%eax
   140002e5b:	48 98                	cltq
   140002e5d:	48 83 c0 0f          	add    $0xf,%rax
   140002e61:	48 83 e0 f0          	and    $0xfffffffffffffff0,%rax
   140002e65:	e8 e6 f6 ff ff       	call   140002550 <___chkstk_ms>
   140002e6a:	b9 03 00 00 00       	mov    $0x3,%ecx
   140002e6f:	41 b9 07 00 00 00    	mov    $0x7,%r9d
   140002e75:	48 29 c4             	sub    %rax,%rsp
   140002e78:	4c 8d 64 24 20       	lea    0x20(%rsp),%r12
   140002e7d:	e9 d3 fd ff ff       	jmp    140002c55 <__pformat_xint.isra.0+0x155>
   140002e82:	66 0f 1f 44 00 00    	nopw   0x0(%rax,%rax,1)
   140002e88:	4c 89 e6             	mov    %r12,%rsi
   140002e8b:	45 85 f6             	test   %r14d,%r14d
   140002e8e:	0f 84 4f fd ff ff    	je     140002be3 <__pformat_xint.isra.0+0xe3>
   140002e94:	48 8d 56 01          	lea    0x1(%rsi),%rdx
   140002e98:	8b 4d fc             	mov    -0x4(%rbp),%ecx
   140002e9b:	c6 06 30             	movb   $0x30,(%rsi)
   140002e9e:	48 89 d0             	mov    %rdx,%rax
   140002ea1:	48 89 d6             	mov    %rdx,%rsi
   140002ea4:	4c 29 e0             	sub    %r12,%rax
   140002ea7:	89 c2                	mov    %eax,%edx
   140002ea9:	39 c8                	cmp    %ecx,%eax
   140002eab:	0f 8d 45 fd ff ff    	jge    140002bf6 <__pformat_xint.isra.0+0xf6>
   140002eb1:	8b 7b 08             	mov    0x8(%rbx),%edi
   140002eb4:	44 8b 7d fc          	mov    -0x4(%rbp),%r15d
   140002eb8:	41 29 d7             	sub    %edx,%r15d
   140002ebb:	44 89 7b 0c          	mov    %r15d,0xc(%rbx)
   140002ebf:	41 83 fd 6f          	cmp    $0x6f,%r13d
   140002ec3:	0f 85 17 fe ff ff    	jne    140002ce0 <__pformat_xint.isra.0+0x1e0>
   140002ec9:	45 85 f6             	test   %r14d,%r14d
   140002ecc:	0f 89 23 fe ff ff    	jns    140002cf5 <__pformat_xint.isra.0+0x1f5>
   140002ed2:	89 f8                	mov    %edi,%eax
   140002ed4:	25 00 06 00 00       	and    $0x600,%eax
   140002ed9:	3d 00 02 00 00       	cmp    $0x200,%eax
   140002ede:	0f 85 11 fe ff ff    	jne    140002cf5 <__pformat_xint.isra.0+0x1f5>
   140002ee4:	4d 63 ff             	movslq %r15d,%r15
   140002ee7:	ba 30 00 00 00       	mov    $0x30,%edx
   140002eec:	48 89 f1             	mov    %rsi,%rcx
   140002eef:	4d 89 f8             	mov    %r15,%r8
   140002ef2:	e8 f9 4c 00 00       	call   140007bf0 <memset>
   140002ef7:	4a 8d 04 3e          	lea    (%rsi,%r15,1),%rax
   140002efb:	41 bf ff ff ff ff    	mov    $0xffffffff,%r15d
   140002f01:	eb 55                	jmp    140002f58 <__pformat_xint.isra.0+0x458>
   140002f03:	0f 1f 44 00 00       	nopl   0x0(%rax,%rax,1)
   140002f08:	f7 c7 00 08 00 00    	test   $0x800,%edi
   140002f0e:	0f 85 94 00 00 00    	jne    140002fa8 <__pformat_xint.isra.0+0x4a8>
   140002f14:	48 89 f0             	mov    %rsi,%rax
   140002f17:	4c 29 e0             	sub    %r12,%rax
   140002f1a:	89 c2                	mov    %eax,%edx
   140002f1c:	39 45 fc             	cmp    %eax,-0x4(%rbp)
   140002f1f:	7f 93                	jg     140002eb4 <__pformat_xint.isra.0+0x3b4>
   140002f21:	c7 43 0c ff ff ff ff 	movl   $0xffffffff,0xc(%rbx)
   140002f28:	e9 da fc ff ff       	jmp    140002c07 <__pformat_xint.isra.0+0x107>
   140002f2d:	0f 1f 00             	nopl   (%rax)
   140002f30:	49 39 f4             	cmp    %rsi,%r12
   140002f33:	0f 82 17 fe ff ff    	jb     140002d50 <__pformat_xint.isra.0+0x250>
   140002f39:	e9 6c fe ff ff       	jmp    140002daa <__pformat_xint.isra.0+0x2aa>
   140002f3e:	66 90                	xchg   %ax,%ax
   140002f40:	41 83 ef 02          	sub    $0x2,%r15d
   140002f44:	45 85 ff             	test   %r15d,%r15d
   140002f47:	0f 8f b7 00 00 00    	jg     140003004 <__pformat_xint.isra.0+0x504>
   140002f4d:	44 88 2e             	mov    %r13b,(%rsi)
   140002f50:	48 8d 46 02          	lea    0x2(%rsi),%rax
   140002f54:	c6 46 01 30          	movb   $0x30,0x1(%rsi)
   140002f58:	49 39 c4             	cmp    %rax,%r12
   140002f5b:	0f 83 7d fe ff ff    	jae    140002dde <__pformat_xint.isra.0+0x2de>
   140002f61:	8b 7b 08             	mov    0x8(%rbx),%edi
   140002f64:	45 8d 6f ff          	lea    -0x1(%r15),%r13d
   140002f68:	48 89 c6             	mov    %rax,%rsi
   140002f6b:	e9 e0 fd ff ff       	jmp    140002d50 <__pformat_xint.isra.0+0x250>
   140002f70:	c7 43 0c ff ff ff ff 	movl   $0xffffffff,0xc(%rbx)
   140002f77:	81 e7 00 08 00 00    	and    $0x800,%edi
   140002f7d:	48 89 f0             	mov    %rsi,%rax
   140002f80:	41 bf ff ff ff ff    	mov    $0xffffffff,%r15d
   140002f86:	74 d0                	je     140002f58 <__pformat_xint.isra.0+0x458>
   140002f88:	44 88 2e             	mov    %r13b,(%rsi)
   140002f8b:	48 8d 46 02          	lea    0x2(%rsi),%rax
   140002f8f:	41 bf ff ff ff ff    	mov    $0xffffffff,%r15d
   140002f95:	c6 46 01 30          	movb   $0x30,0x1(%rsi)
   140002f99:	eb bd                	jmp    140002f58 <__pformat_xint.isra.0+0x458>
   140002f9b:	0f 1f 44 00 00       	nopl   0x0(%rax,%rax,1)
   140002fa0:	8d 78 ff             	lea    -0x1(%rax),%edi
   140002fa3:	e9 19 fc ff ff       	jmp    140002bc1 <__pformat_xint.isra.0+0xc1>
   140002fa8:	c6 06 30             	movb   $0x30,(%rsi)
   140002fab:	49 8d 73 02          	lea    0x2(%r11),%rsi
   140002faf:	e9 26 fc ff ff       	jmp    140002bda <__pformat_xint.isra.0+0xda>
   140002fb4:	8b 7b 08             	mov    0x8(%rbx),%edi
   140002fb7:	eb be                	jmp    140002f77 <__pformat_xint.isra.0+0x477>
   140002fb9:	89 f8                	mov    %edi,%eax
   140002fbb:	25 00 06 00 00       	and    $0x600,%eax
   140002fc0:	3d 00 02 00 00       	cmp    $0x200,%eax
   140002fc5:	0f 85 2a fd ff ff    	jne    140002cf5 <__pformat_xint.isra.0+0x1f5>
   140002fcb:	4d 63 ff             	movslq %r15d,%r15
   140002fce:	ba 30 00 00 00       	mov    $0x30,%edx
   140002fd3:	48 89 f1             	mov    %rsi,%rcx
   140002fd6:	4d 89 f8             	mov    %r15,%r8
   140002fd9:	e8 12 4c 00 00       	call   140007bf0 <memset>
   140002fde:	81 e7 00 08 00 00    	and    $0x800,%edi
   140002fe4:	4a 8d 04 3e          	lea    (%rsi,%r15,1),%rax
   140002fe8:	0f 84 0d ff ff ff    	je     140002efb <__pformat_xint.isra.0+0x3fb>
   140002fee:	44 88 28             	mov    %r13b,(%rax)
   140002ff1:	41 bf ff ff ff ff    	mov    $0xffffffff,%r15d
   140002ff7:	48 83 c0 02          	add    $0x2,%rax
   140002ffb:	c6 40 ff 30          	movb   $0x30,-0x1(%rax)
   140002fff:	e9 54 ff ff ff       	jmp    140002f58 <__pformat_xint.isra.0+0x458>
   140003004:	45 85 f6             	test   %r14d,%r14d
   140003007:	78 10                	js     140003019 <__pformat_xint.isra.0+0x519>
   140003009:	44 88 2e             	mov    %r13b,(%rsi)
   14000300c:	48 83 c6 02          	add    $0x2,%rsi
   140003010:	c6 46 ff 30          	movb   $0x30,-0x1(%rsi)
   140003014:	e9 dc fc ff ff       	jmp    140002cf5 <__pformat_xint.isra.0+0x1f5>
   140003019:	89 f8                	mov    %edi,%eax
   14000301b:	25 00 06 00 00       	and    $0x600,%eax
   140003020:	3d 00 02 00 00       	cmp    $0x200,%eax
   140003025:	75 e2                	jne    140003009 <__pformat_xint.isra.0+0x509>
   140003027:	eb a2                	jmp    140002fcb <__pformat_xint.isra.0+0x4cb>
   140003029:	0f 1f 80 00 00 00 00 	nopl   0x0(%rax)

0000000140003030 <__pformat_int.isra.0>:
   140003030:	55                   	push   %rbp
   140003031:	41 57                	push   %r15
   140003033:	41 56                	push   %r14
   140003035:	41 55                	push   %r13
   140003037:	41 54                	push   %r12
   140003039:	57                   	push   %rdi
   14000303a:	56                   	push   %rsi
   14000303b:	53                   	push   %rbx
   14000303c:	48 83 ec 28          	sub    $0x28,%rsp
   140003040:	48 8d 6c 24 20       	lea    0x20(%rsp),%rbp
   140003045:	31 c0                	xor    %eax,%eax
   140003047:	44 8b 72 10          	mov    0x10(%rdx),%r14d
   14000304b:	8b 7a 08             	mov    0x8(%rdx),%edi
   14000304e:	45 85 f6             	test   %r14d,%r14d
   140003051:	41 0f 49 c6          	cmovns %r14d,%eax
   140003055:	48 89 d3             	mov    %rdx,%rbx
   140003058:	83 c0 17             	add    $0x17,%eax
   14000305b:	f7 c7 00 10 00 00    	test   $0x1000,%edi
   140003061:	74 0b                	je     14000306e <__pformat_int.isra.0+0x3e>
   140003063:	66 83 7a 20 00       	cmpw   $0x0,0x20(%rdx)
   140003068:	0f 85 62 02 00 00    	jne    1400032d0 <__pformat_int.isra.0+0x2a0>
   14000306e:	8b 73 0c             	mov    0xc(%rbx),%esi
   140003071:	39 c6                	cmp    %eax,%esi
   140003073:	0f 4d c6             	cmovge %esi,%eax
   140003076:	48 98                	cltq
   140003078:	48 83 c0 0f          	add    $0xf,%rax
   14000307c:	48 83 e0 f0          	and    $0xfffffffffffffff0,%rax
   140003080:	e8 cb f4 ff ff       	call   140002550 <___chkstk_ms>
   140003085:	48 29 c4             	sub    %rax,%rsp
   140003088:	4c 8d 64 24 20       	lea    0x20(%rsp),%r12
   14000308d:	40 f6 c7 80          	test   $0x80,%dil
   140003091:	74 10                	je     1400030a3 <__pformat_int.isra.0+0x73>
   140003093:	48 85 c9             	test   %rcx,%rcx
   140003096:	0f 88 74 02 00 00    	js     140003310 <__pformat_int.isra.0+0x2e0>
   14000309c:	40 80 e7 7f          	and    $0x7f,%dil
   1400030a0:	89 7b 08             	mov    %edi,0x8(%rbx)
   1400030a3:	48 85 c9             	test   %rcx,%rcx
   1400030a6:	0f 84 14 03 00 00    	je     1400033c0 <__pformat_int.isra.0+0x390>
   1400030ac:	49 bb 03 00 00 00 00 	movabs $0x8000000000000003,%r11
   1400030b3:	00 00 80 
   1400030b6:	41 89 fa             	mov    %edi,%r10d
   1400030b9:	4d 89 e0             	mov    %r12,%r8
   1400030bc:	49 b9 cd cc cc cc cc 	movabs $0xcccccccccccccccd,%r9
   1400030c3:	cc cc cc 
   1400030c6:	41 81 e2 00 10 00 00 	and    $0x1000,%r10d
   1400030cd:	0f 1f 00             	nopl   (%rax)
   1400030d0:	4d 39 c4             	cmp    %r8,%r12
   1400030d3:	74 2b                	je     140003100 <__pformat_int.isra.0+0xd0>
   1400030d5:	45 85 d2             	test   %r10d,%r10d
   1400030d8:	74 26                	je     140003100 <__pformat_int.isra.0+0xd0>
   1400030da:	66 83 7b 20 00       	cmpw   $0x0,0x20(%rbx)
   1400030df:	74 1f                	je     140003100 <__pformat_int.isra.0+0xd0>
   1400030e1:	4c 89 c0             	mov    %r8,%rax
   1400030e4:	4c 29 e0             	sub    %r12,%rax
   1400030e7:	4c 21 d8             	and    %r11,%rax
   1400030ea:	48 83 f8 03          	cmp    $0x3,%rax
   1400030ee:	75 10                	jne    140003100 <__pformat_int.isra.0+0xd0>
   1400030f0:	41 c6 00 2c          	movb   $0x2c,(%r8)
   1400030f4:	49 83 c0 01          	add    $0x1,%r8
   1400030f8:	0f 1f 84 00 00 00 00 	nopl   0x0(%rax,%rax,1)
   1400030ff:	00 
   140003100:	48 89 c8             	mov    %rcx,%rax
   140003103:	4d 8d 68 01          	lea    0x1(%r8),%r13
   140003107:	49 f7 e1             	mul    %r9
   14000310a:	48 89 c8             	mov    %rcx,%rax
   14000310d:	48 c1 ea 03          	shr    $0x3,%rdx
   140003111:	4c 8d 3c 92          	lea    (%rdx,%rdx,4),%r15
   140003115:	4d 01 ff             	add    %r15,%r15
   140003118:	4c 29 f8             	sub    %r15,%rax
   14000311b:	83 c0 30             	add    $0x30,%eax
   14000311e:	41 88 00             	mov    %al,(%r8)
   140003121:	48 83 f9 09          	cmp    $0x9,%rcx
   140003125:	76 09                	jbe    140003130 <__pformat_int.isra.0+0x100>
   140003127:	48 89 d1             	mov    %rdx,%rcx
   14000312a:	4d 89 e8             	mov    %r13,%r8
   14000312d:	eb a1                	jmp    1400030d0 <__pformat_int.isra.0+0xa0>
   14000312f:	90                   	nop
   140003130:	45 85 f6             	test   %r14d,%r14d
   140003133:	7e 2b                	jle    140003160 <__pformat_int.isra.0+0x130>
   140003135:	4c 89 e8             	mov    %r13,%rax
   140003138:	45 89 f0             	mov    %r14d,%r8d
   14000313b:	4c 29 e0             	sub    %r12,%rax
   14000313e:	41 29 c0             	sub    %eax,%r8d
   140003141:	45 85 c0             	test   %r8d,%r8d
   140003144:	0f 8e a6 01 00 00    	jle    1400032f0 <__pformat_int.isra.0+0x2c0>
   14000314a:	4d 63 f8             	movslq %r8d,%r15
   14000314d:	4c 89 e9             	mov    %r13,%rcx
   140003150:	ba 30 00 00 00       	mov    $0x30,%edx
   140003155:	4d 89 f8             	mov    %r15,%r8
   140003158:	4d 01 fd             	add    %r15,%r13
   14000315b:	e8 90 4a 00 00       	call   140007bf0 <memset>
   140003160:	4d 39 ec             	cmp    %r13,%r12
   140003163:	0f 94 c0             	sete   %al
   140003166:	45 85 f6             	test   %r14d,%r14d
   140003169:	74 08                	je     140003173 <__pformat_int.isra.0+0x143>
   14000316b:	84 c0                	test   %al,%al
   14000316d:	0f 85 3f 02 00 00    	jne    1400033b2 <__pformat_int.isra.0+0x382>
   140003173:	85 f6                	test   %esi,%esi
   140003175:	7e 39                	jle    1400031b0 <__pformat_int.isra.0+0x180>
   140003177:	4c 89 e8             	mov    %r13,%rax
   14000317a:	4c 29 e0             	sub    %r12,%rax
   14000317d:	29 c6                	sub    %eax,%esi
   14000317f:	89 73 0c             	mov    %esi,0xc(%rbx)
   140003182:	85 f6                	test   %esi,%esi
   140003184:	7e 2a                	jle    1400031b0 <__pformat_int.isra.0+0x180>
   140003186:	f7 c7 c0 01 00 00    	test   $0x1c0,%edi
   14000318c:	0f 85 8e 01 00 00    	jne    140003320 <__pformat_int.isra.0+0x2f0>
   140003192:	45 85 f6             	test   %r14d,%r14d
   140003195:	0f 88 94 01 00 00    	js     14000332f <__pformat_int.isra.0+0x2ff>
   14000319b:	f7 c7 00 04 00 00    	test   $0x400,%edi
   1400031a1:	0f 84 d1 01 00 00    	je     140003378 <__pformat_int.isra.0+0x348>
   1400031a7:	66 0f 1f 84 00 00 00 	nopw   0x0(%rax,%rax,1)
   1400031ae:	00 00 
   1400031b0:	40 f6 c7 80          	test   $0x80,%dil
   1400031b4:	0f 84 d6 00 00 00    	je     140003290 <__pformat_int.isra.0+0x260>
   1400031ba:	41 c6 45 00 2d       	movb   $0x2d,0x0(%r13)
   1400031bf:	49 8d 75 01          	lea    0x1(%r13),%rsi
   1400031c3:	49 39 f4             	cmp    %rsi,%r12
   1400031c6:	72 20                	jb     1400031e8 <__pformat_int.isra.0+0x1b8>
   1400031c8:	eb 53                	jmp    14000321d <__pformat_int.isra.0+0x1ed>
   1400031ca:	66 0f 1f 44 00 00    	nopw   0x0(%rax,%rax,1)
   1400031d0:	48 63 43 24          	movslq 0x24(%rbx),%rax
   1400031d4:	88 0c 02             	mov    %cl,(%rdx,%rax,1)
   1400031d7:	8b 43 24             	mov    0x24(%rbx),%eax
   1400031da:	83 c0 01             	add    $0x1,%eax
   1400031dd:	89 43 24             	mov    %eax,0x24(%rbx)
   1400031e0:	49 39 f4             	cmp    %rsi,%r12
   1400031e3:	74 38                	je     14000321d <__pformat_int.isra.0+0x1ed>
   1400031e5:	8b 7b 08             	mov    0x8(%rbx),%edi
   1400031e8:	48 83 ee 01          	sub    $0x1,%rsi
   1400031ec:	f7 c7 00 40 00 00    	test   $0x4000,%edi
   1400031f2:	75 08                	jne    1400031fc <__pformat_int.isra.0+0x1cc>
   1400031f4:	8b 43 24             	mov    0x24(%rbx),%eax
   1400031f7:	39 43 28             	cmp    %eax,0x28(%rbx)
   1400031fa:	7e de                	jle    1400031da <__pformat_int.isra.0+0x1aa>
   1400031fc:	81 e7 00 20 00 00    	and    $0x2000,%edi
   140003202:	0f be 0e             	movsbl (%rsi),%ecx
   140003205:	48 8b 13             	mov    (%rbx),%rdx
   140003208:	74 c6                	je     1400031d0 <__pformat_int.isra.0+0x1a0>
   14000320a:	e8 b1 49 00 00       	call   140007bc0 <fputc>
   14000320f:	8b 43 24             	mov    0x24(%rbx),%eax
   140003212:	83 c0 01             	add    $0x1,%eax
   140003215:	89 43 24             	mov    %eax,0x24(%rbx)
   140003218:	49 39 f4             	cmp    %rsi,%r12
   14000321b:	75 c8                	jne    1400031e5 <__pformat_int.isra.0+0x1b5>
   14000321d:	8b 43 0c             	mov    0xc(%rbx),%eax
   140003220:	eb 1a                	jmp    14000323c <__pformat_int.isra.0+0x20c>
   140003222:	66 0f 1f 44 00 00    	nopw   0x0(%rax,%rax,1)
   140003228:	48 63 43 24          	movslq 0x24(%rbx),%rax
   14000322c:	c6 04 02 20          	movb   $0x20,(%rdx,%rax,1)
   140003230:	8b 53 24             	mov    0x24(%rbx),%edx
   140003233:	8b 43 0c             	mov    0xc(%rbx),%eax
   140003236:	83 c2 01             	add    $0x1,%edx
   140003239:	89 53 24             	mov    %edx,0x24(%rbx)
   14000323c:	89 c2                	mov    %eax,%edx
   14000323e:	83 e8 01             	sub    $0x1,%eax
   140003241:	89 43 0c             	mov    %eax,0xc(%rbx)
   140003244:	85 d2                	test   %edx,%edx
   140003246:	7e 30                	jle    140003278 <__pformat_int.isra.0+0x248>
   140003248:	8b 4b 08             	mov    0x8(%rbx),%ecx
   14000324b:	f6 c5 40             	test   $0x40,%ch
   14000324e:	75 08                	jne    140003258 <__pformat_int.isra.0+0x228>
   140003250:	8b 53 24             	mov    0x24(%rbx),%edx
   140003253:	39 53 28             	cmp    %edx,0x28(%rbx)
   140003256:	7e de                	jle    140003236 <__pformat_int.isra.0+0x206>
   140003258:	48 8b 13             	mov    (%rbx),%rdx
   14000325b:	80 e5 20             	and    $0x20,%ch
   14000325e:	74 c8                	je     140003228 <__pformat_int.isra.0+0x1f8>
   140003260:	b9 20 00 00 00       	mov    $0x20,%ecx
   140003265:	e8 56 49 00 00       	call   140007bc0 <fputc>
   14000326a:	8b 53 24             	mov    0x24(%rbx),%edx
   14000326d:	8b 43 0c             	mov    0xc(%rbx),%eax
   140003270:	eb c4                	jmp    140003236 <__pformat_int.isra.0+0x206>
   140003272:	66 0f 1f 44 00 00    	nopw   0x0(%rax,%rax,1)
   140003278:	48 8d 65 08          	lea    0x8(%rbp),%rsp
   14000327c:	5b                   	pop    %rbx
   14000327d:	5e                   	pop    %rsi
   14000327e:	5f                   	pop    %rdi
   14000327f:	41 5c                	pop    %r12
   140003281:	41 5d                	pop    %r13
   140003283:	41 5e                	pop    %r14
   140003285:	41 5f                	pop    %r15
   140003287:	5d                   	pop    %rbp
   140003288:	c3                   	ret
   140003289:	0f 1f 80 00 00 00 00 	nopl   0x0(%rax)
   140003290:	f7 c7 00 01 00 00    	test   $0x100,%edi
   140003296:	74 18                	je     1400032b0 <__pformat_int.isra.0+0x280>
   140003298:	41 c6 45 00 2b       	movb   $0x2b,0x0(%r13)
   14000329d:	49 8d 75 01          	lea    0x1(%r13),%rsi
   1400032a1:	e9 1d ff ff ff       	jmp    1400031c3 <__pformat_int.isra.0+0x193>
   1400032a6:	66 2e 0f 1f 84 00 00 	cs nopw 0x0(%rax,%rax,1)
   1400032ad:	00 00 00 
   1400032b0:	4c 89 ee             	mov    %r13,%rsi
   1400032b3:	40 f6 c7 40          	test   $0x40,%dil
   1400032b7:	0f 84 06 ff ff ff    	je     1400031c3 <__pformat_int.isra.0+0x193>
   1400032bd:	41 c6 45 00 20       	movb   $0x20,0x0(%r13)
   1400032c2:	48 83 c6 01          	add    $0x1,%rsi
   1400032c6:	e9 f8 fe ff ff       	jmp    1400031c3 <__pformat_int.isra.0+0x193>
   1400032cb:	0f 1f 44 00 00       	nopl   0x0(%rax,%rax,1)
   1400032d0:	89 c2                	mov    %eax,%edx
   1400032d2:	41 b8 ab aa aa aa    	mov    $0xaaaaaaab,%r8d
   1400032d8:	49 0f af d0          	imul   %r8,%rdx
   1400032dc:	48 c1 ea 21          	shr    $0x21,%rdx
   1400032e0:	01 d0                	add    %edx,%eax
   1400032e2:	e9 87 fd ff ff       	jmp    14000306e <__pformat_int.isra.0+0x3e>
   1400032e7:	66 0f 1f 84 00 00 00 	nopw   0x0(%rax,%rax,1)
   1400032ee:	00 00 
   1400032f0:	4d 39 ec             	cmp    %r13,%r12
   1400032f3:	0f 85 7a fe ff ff    	jne    140003173 <__pformat_int.isra.0+0x143>
   1400032f9:	4c 89 e0             	mov    %r12,%rax
   1400032fc:	c6 00 30             	movb   $0x30,(%rax)
   1400032ff:	4c 8d 68 01          	lea    0x1(%rax),%r13
   140003303:	e9 6b fe ff ff       	jmp    140003173 <__pformat_int.isra.0+0x143>
   140003308:	0f 1f 84 00 00 00 00 	nopl   0x0(%rax,%rax,1)
   14000330f:	00 
   140003310:	48 f7 d9             	neg    %rcx
   140003313:	e9 94 fd ff ff       	jmp    1400030ac <__pformat_int.isra.0+0x7c>
   140003318:	0f 1f 84 00 00 00 00 	nopl   0x0(%rax,%rax,1)
   14000331f:	00 
   140003320:	83 ee 01             	sub    $0x1,%esi
   140003323:	89 73 0c             	mov    %esi,0xc(%rbx)
   140003326:	45 85 f6             	test   %r14d,%r14d
   140003329:	0f 89 6c fe ff ff    	jns    14000319b <__pformat_int.isra.0+0x16b>
   14000332f:	89 f8                	mov    %edi,%eax
   140003331:	25 00 06 00 00       	and    $0x600,%eax
   140003336:	3d 00 02 00 00       	cmp    $0x200,%eax
   14000333b:	0f 85 5a fe ff ff    	jne    14000319b <__pformat_int.isra.0+0x16b>
   140003341:	8b 43 0c             	mov    0xc(%rbx),%eax
   140003344:	8d 50 ff             	lea    -0x1(%rax),%edx
   140003347:	89 53 0c             	mov    %edx,0xc(%rbx)
   14000334a:	85 c0                	test   %eax,%eax
   14000334c:	0f 8e 5e fe ff ff    	jle    1400031b0 <__pformat_int.isra.0+0x180>
   140003352:	48 63 f0             	movslq %eax,%rsi
   140003355:	4c 89 e9             	mov    %r13,%rcx
   140003358:	ba 30 00 00 00       	mov    $0x30,%edx
   14000335d:	49 89 f0             	mov    %rsi,%r8
   140003360:	49 01 f5             	add    %rsi,%r13
   140003363:	e8 88 48 00 00       	call   140007bf0 <memset>
   140003368:	c7 43 0c ff ff ff ff 	movl   $0xffffffff,0xc(%rbx)
   14000336f:	e9 3c fe ff ff       	jmp    1400031b0 <__pformat_int.isra.0+0x180>
   140003374:	0f 1f 40 00          	nopl   0x0(%rax)
   140003378:	8b 43 0c             	mov    0xc(%rbx),%eax
   14000337b:	8d 50 ff             	lea    -0x1(%rax),%edx
   14000337e:	89 53 0c             	mov    %edx,0xc(%rbx)
   140003381:	85 c0                	test   %eax,%eax
   140003383:	0f 8e 27 fe ff ff    	jle    1400031b0 <__pformat_int.isra.0+0x180>
   140003389:	0f 1f 80 00 00 00 00 	nopl   0x0(%rax)
   140003390:	48 89 da             	mov    %rbx,%rdx
   140003393:	b9 20 00 00 00       	mov    $0x20,%ecx
   140003398:	e8 33 f3 ff ff       	call   1400026d0 <__pformat_putc>
   14000339d:	8b 43 0c             	mov    0xc(%rbx),%eax
   1400033a0:	8d 50 ff             	lea    -0x1(%rax),%edx
   1400033a3:	89 53 0c             	mov    %edx,0xc(%rbx)
   1400033a6:	85 c0                	test   %eax,%eax
   1400033a8:	7f e6                	jg     140003390 <__pformat_int.isra.0+0x360>
   1400033aa:	8b 7b 08             	mov    0x8(%rbx),%edi
   1400033ad:	e9 fe fd ff ff       	jmp    1400031b0 <__pformat_int.isra.0+0x180>
   1400033b2:	4c 89 e8             	mov    %r13,%rax
   1400033b5:	e9 42 ff ff ff       	jmp    1400032fc <__pformat_int.isra.0+0x2cc>
   1400033ba:	66 0f 1f 44 00 00    	nopw   0x0(%rax,%rax,1)
   1400033c0:	4d 89 e5             	mov    %r12,%r13
   1400033c3:	45 89 f0             	mov    %r14d,%r8d
   1400033c6:	b8 01 00 00 00       	mov    $0x1,%eax
   1400033cb:	45 85 f6             	test   %r14d,%r14d
   1400033ce:	0f 8f 76 fd ff ff    	jg     14000314a <__pformat_int.isra.0+0x11a>
   1400033d4:	e9 8d fd ff ff       	jmp    140003166 <__pformat_int.isra.0+0x136>
   1400033d9:	0f 1f 80 00 00 00 00 	nopl   0x0(%rax)

00000001400033e0 <__pformat_emit_radix_point>:
   1400033e0:	55                   	push   %rbp
   1400033e1:	41 54                	push   %r12
   1400033e3:	57                   	push   %rdi
   1400033e4:	56                   	push   %rsi
   1400033e5:	53                   	push   %rbx
   1400033e6:	48 83 ec 30          	sub    $0x30,%rsp
   1400033ea:	48 8d 6c 24 30       	lea    0x30(%rsp),%rbp
   1400033ef:	83 79 14 fd          	cmpl   $0xfffffffd,0x14(%rcx)
   1400033f3:	48 89 cb             	mov    %rcx,%rbx
   1400033f6:	0f 84 d4 00 00 00    	je     1400034d0 <__pformat_emit_radix_point+0xf0>
   1400033fc:	0f b7 51 18          	movzwl 0x18(%rcx),%edx
   140003400:	66 85 d2             	test   %dx,%dx
   140003403:	0f 84 a7 00 00 00    	je     1400034b0 <__pformat_emit_radix_point+0xd0>
   140003409:	48 63 43 14          	movslq 0x14(%rbx),%rax
   14000340d:	48 89 e7             	mov    %rsp,%rdi
   140003410:	48 83 c0 0f          	add    $0xf,%rax
   140003414:	48 83 e0 f0          	and    $0xfffffffffffffff0,%rax
   140003418:	e8 33 f1 ff ff       	call   140002550 <___chkstk_ms>
   14000341d:	48 29 c4             	sub    %rax,%rsp
   140003420:	4c 8d 45 f8          	lea    -0x8(%rbp),%r8
   140003424:	48 c7 45 f8 00 00 00 	movq   $0x0,-0x8(%rbp)
   14000342b:	00 
   14000342c:	48 8d 74 24 20       	lea    0x20(%rsp),%rsi
   140003431:	48 89 f1             	mov    %rsi,%rcx
   140003434:	e8 77 42 00 00       	call   1400076b0 <wcrtomb>
   140003439:	85 c0                	test   %eax,%eax
   14000343b:	0f 8e cf 00 00 00    	jle    140003510 <__pformat_emit_radix_point+0x130>
   140003441:	83 e8 01             	sub    $0x1,%eax
   140003444:	4c 8d 64 06 01       	lea    0x1(%rsi,%rax,1),%r12
   140003449:	eb 1a                	jmp    140003465 <__pformat_emit_radix_point+0x85>
   14000344b:	0f 1f 44 00 00       	nopl   0x0(%rax,%rax,1)
   140003450:	48 63 53 24          	movslq 0x24(%rbx),%rdx
   140003454:	88 0c 10             	mov    %cl,(%rax,%rdx,1)
   140003457:	8b 43 24             	mov    0x24(%rbx),%eax
   14000345a:	83 c0 01             	add    $0x1,%eax
   14000345d:	89 43 24             	mov    %eax,0x24(%rbx)
   140003460:	49 39 f4             	cmp    %rsi,%r12
   140003463:	74 36                	je     14000349b <__pformat_emit_radix_point+0xbb>
   140003465:	8b 53 08             	mov    0x8(%rbx),%edx
   140003468:	48 83 c6 01          	add    $0x1,%rsi
   14000346c:	f6 c6 40             	test   $0x40,%dh
   14000346f:	75 08                	jne    140003479 <__pformat_emit_radix_point+0x99>
   140003471:	8b 43 24             	mov    0x24(%rbx),%eax
   140003474:	39 43 28             	cmp    %eax,0x28(%rbx)
   140003477:	7e e1                	jle    14000345a <__pformat_emit_radix_point+0x7a>
   140003479:	0f be 4e ff          	movsbl -0x1(%rsi),%ecx
   14000347d:	48 8b 03             	mov    (%rbx),%rax
   140003480:	80 e6 20             	and    $0x20,%dh
   140003483:	74 cb                	je     140003450 <__pformat_emit_radix_point+0x70>
   140003485:	48 89 c2             	mov    %rax,%rdx
   140003488:	e8 33 47 00 00       	call   140007bc0 <fputc>
   14000348d:	8b 43 24             	mov    0x24(%rbx),%eax
   140003490:	83 c0 01             	add    $0x1,%eax
   140003493:	89 43 24             	mov    %eax,0x24(%rbx)
   140003496:	49 39 f4             	cmp    %rsi,%r12
   140003499:	75 ca                	jne    140003465 <__pformat_emit_radix_point+0x85>
   14000349b:	48 89 fc             	mov    %rdi,%rsp
   14000349e:	48 89 ec             	mov    %rbp,%rsp
   1400034a1:	5b                   	pop    %rbx
   1400034a2:	5e                   	pop    %rsi
   1400034a3:	5f                   	pop    %rdi
   1400034a4:	41 5c                	pop    %r12
   1400034a6:	5d                   	pop    %rbp
   1400034a7:	c3                   	ret
   1400034a8:	0f 1f 84 00 00 00 00 	nopl   0x0(%rax,%rax,1)
   1400034af:	00 
   1400034b0:	48 89 da             	mov    %rbx,%rdx
   1400034b3:	b9 2e 00 00 00       	mov    $0x2e,%ecx
   1400034b8:	e8 13 f2 ff ff       	call   1400026d0 <__pformat_putc>
   1400034bd:	90                   	nop
   1400034be:	48 89 ec             	mov    %rbp,%rsp
   1400034c1:	5b                   	pop    %rbx
   1400034c2:	5e                   	pop    %rsi
   1400034c3:	5f                   	pop    %rdi
   1400034c4:	41 5c                	pop    %r12
   1400034c6:	5d                   	pop    %rbp
   1400034c7:	c3                   	ret
   1400034c8:	0f 1f 84 00 00 00 00 	nopl   0x0(%rax,%rax,1)
   1400034cf:	00 
   1400034d0:	48 c7 45 f8 00 00 00 	movq   $0x0,-0x8(%rbp)
   1400034d7:	00 
   1400034d8:	48 8d 75 f8          	lea    -0x8(%rbp),%rsi
   1400034dc:	e8 f7 46 00 00       	call   140007bd8 <localeconv>
   1400034e1:	48 8d 4d f6          	lea    -0xa(%rbp),%rcx
   1400034e5:	49 89 f1             	mov    %rsi,%r9
   1400034e8:	41 b8 10 00 00 00    	mov    $0x10,%r8d
   1400034ee:	48 8b 10             	mov    (%rax),%rdx
   1400034f1:	e8 5a 44 00 00       	call   140007950 <mbrtowc>
   1400034f6:	85 c0                	test   %eax,%eax
   1400034f8:	7e 2e                	jle    140003528 <__pformat_emit_radix_point+0x148>
   1400034fa:	0f b7 55 f6          	movzwl -0xa(%rbp),%edx
   1400034fe:	66 89 53 18          	mov    %dx,0x18(%rbx)
   140003502:	89 43 14             	mov    %eax,0x14(%rbx)
   140003505:	e9 f6 fe ff ff       	jmp    140003400 <__pformat_emit_radix_point+0x20>
   14000350a:	66 0f 1f 44 00 00    	nopw   0x0(%rax,%rax,1)
   140003510:	48 89 da             	mov    %rbx,%rdx
   140003513:	b9 2e 00 00 00       	mov    $0x2e,%ecx
   140003518:	e8 b3 f1 ff ff       	call   1400026d0 <__pformat_putc>
   14000351d:	48 89 fc             	mov    %rdi,%rsp
   140003520:	e9 79 ff ff ff       	jmp    14000349e <__pformat_emit_radix_point+0xbe>
   140003525:	0f 1f 00             	nopl   (%rax)
   140003528:	0f b7 53 18          	movzwl 0x18(%rbx),%edx
   14000352c:	eb d4                	jmp    140003502 <__pformat_emit_radix_point+0x122>
   14000352e:	66 90                	xchg   %ax,%ax

0000000140003530 <__pformat_emit_float>:
   140003530:	55                   	push   %rbp
   140003531:	57                   	push   %rdi
   140003532:	56                   	push   %rsi
   140003533:	53                   	push   %rbx
   140003534:	48 83 ec 28          	sub    $0x28,%rsp
   140003538:	41 8b 41 0c          	mov    0xc(%r9),%eax
   14000353c:	89 cd                	mov    %ecx,%ebp
   14000353e:	48 89 d7             	mov    %rdx,%rdi
   140003541:	44 89 c6             	mov    %r8d,%esi
   140003544:	4c 89 cb             	mov    %r9,%rbx
   140003547:	45 85 c0             	test   %r8d,%r8d
   14000354a:	0f 8e 50 01 00 00    	jle    1400036a0 <__pformat_emit_float+0x170>
   140003550:	41 39 c0             	cmp    %eax,%r8d
   140003553:	7f 6b                	jg     1400035c0 <__pformat_emit_float+0x90>
   140003555:	41 8b 51 10          	mov    0x10(%r9),%edx
   140003559:	44 29 c0             	sub    %r8d,%eax
   14000355c:	39 d0                	cmp    %edx,%eax
   14000355e:	0f 8e 0c 03 00 00    	jle    140003870 <__pformat_emit_float+0x340>
   140003564:	29 d0                	sub    %edx,%eax
   140003566:	89 43 0c             	mov    %eax,0xc(%rbx)
   140003569:	85 d2                	test   %edx,%edx
   14000356b:	0f 8e 2f 03 00 00    	jle    1400038a0 <__pformat_emit_float+0x370>
   140003571:	83 e8 01             	sub    $0x1,%eax
   140003574:	89 43 0c             	mov    %eax,0xc(%rbx)
   140003577:	85 f6                	test   %esi,%esi
   140003579:	7e 0d                	jle    140003588 <__pformat_emit_float+0x58>
   14000357b:	f6 43 09 10          	testb  $0x10,0x9(%rbx)
   14000357f:	0f 85 02 03 00 00    	jne    140003887 <__pformat_emit_float+0x357>
   140003585:	0f 1f 00             	nopl   (%rax)
   140003588:	85 c0                	test   %eax,%eax
   14000358a:	7e 47                	jle    1400035d3 <__pformat_emit_float+0xa3>
   14000358c:	85 ed                	test   %ebp,%ebp
   14000358e:	0f 85 e4 01 00 00    	jne    140003778 <__pformat_emit_float+0x248>
   140003594:	8b 53 08             	mov    0x8(%rbx),%edx
   140003597:	f7 c2 c0 01 00 00    	test   $0x1c0,%edx
   14000359d:	0f 84 b5 02 00 00    	je     140003858 <__pformat_emit_float+0x328>
   1400035a3:	8d 48 ff             	lea    -0x1(%rax),%ecx
   1400035a6:	89 4b 0c             	mov    %ecx,0xc(%rbx)
   1400035a9:	85 c9                	test   %ecx,%ecx
   1400035ab:	74 31                	je     1400035de <__pformat_emit_float+0xae>
   1400035ad:	f6 c6 06             	test   $0x6,%dh
   1400035b0:	75 2c                	jne    1400035de <__pformat_emit_float+0xae>
   1400035b2:	e9 dc 01 00 00       	jmp    140003793 <__pformat_emit_float+0x263>
   1400035b7:	66 0f 1f 84 00 00 00 	nopw   0x0(%rax,%rax,1)
   1400035be:	00 00 
   1400035c0:	41 c7 41 0c ff ff ff 	movl   $0xffffffff,0xc(%r9)
   1400035c7:	ff 
   1400035c8:	41 f6 41 09 10       	testb  $0x10,0x9(%r9)
   1400035cd:	0f 85 2d 02 00 00    	jne    140003800 <__pformat_emit_float+0x2d0>
   1400035d3:	85 ed                	test   %ebp,%ebp
   1400035d5:	0f 85 f5 00 00 00    	jne    1400036d0 <__pformat_emit_float+0x1a0>
   1400035db:	8b 53 08             	mov    0x8(%rbx),%edx
   1400035de:	f6 c6 01             	test   $0x1,%dh
   1400035e1:	0f 85 d9 01 00 00    	jne    1400037c0 <__pformat_emit_float+0x290>
   1400035e7:	83 e2 40             	and    $0x40,%edx
   1400035ea:	74 14                	je     140003600 <__pformat_emit_float+0xd0>
   1400035ec:	48 89 da             	mov    %rbx,%rdx
   1400035ef:	b9 20 00 00 00       	mov    $0x20,%ecx
   1400035f4:	e8 d7 f0 ff ff       	call   1400026d0 <__pformat_putc>
   1400035f9:	0f 1f 80 00 00 00 00 	nopl   0x0(%rax)
   140003600:	8b 43 0c             	mov    0xc(%rbx),%eax
   140003603:	85 c0                	test   %eax,%eax
   140003605:	7e 15                	jle    14000361c <__pformat_emit_float+0xec>
   140003607:	8b 53 08             	mov    0x8(%rbx),%edx
   14000360a:	81 e2 00 06 00 00    	and    $0x600,%edx
   140003610:	81 fa 00 02 00 00    	cmp    $0x200,%edx
   140003616:	0f 84 bc 01 00 00    	je     1400037d8 <__pformat_emit_float+0x2a8>
   14000361c:	85 f6                	test   %esi,%esi
   14000361e:	0f 8e 0c 01 00 00    	jle    140003730 <__pformat_emit_float+0x200>
   140003624:	0f 1f 40 00          	nopl   0x0(%rax)
   140003628:	0f b6 07             	movzbl (%rdi),%eax
   14000362b:	b9 30 00 00 00       	mov    $0x30,%ecx
   140003630:	84 c0                	test   %al,%al
   140003632:	74 07                	je     14000363b <__pformat_emit_float+0x10b>
   140003634:	48 83 c7 01          	add    $0x1,%rdi
   140003638:	0f be c8             	movsbl %al,%ecx
   14000363b:	48 89 da             	mov    %rbx,%rdx
   14000363e:	e8 8d f0 ff ff       	call   1400026d0 <__pformat_putc>
   140003643:	83 ee 01             	sub    $0x1,%esi
   140003646:	74 30                	je     140003678 <__pformat_emit_float+0x148>
   140003648:	f6 43 09 10          	testb  $0x10,0x9(%rbx)
   14000364c:	74 da                	je     140003628 <__pformat_emit_float+0xf8>
   14000364e:	66 83 7b 20 00       	cmpw   $0x0,0x20(%rbx)
   140003653:	74 d3                	je     140003628 <__pformat_emit_float+0xf8>
   140003655:	69 c6 ab aa aa aa    	imul   $0xaaaaaaab,%esi,%eax
   14000365b:	3d 55 55 55 55       	cmp    $0x55555555,%eax
   140003660:	77 c6                	ja     140003628 <__pformat_emit_float+0xf8>
   140003662:	48 8d 4b 20          	lea    0x20(%rbx),%rcx
   140003666:	49 89 d8             	mov    %rbx,%r8
   140003669:	ba 01 00 00 00       	mov    $0x1,%edx
   14000366e:	e8 bd f0 ff ff       	call   140002730 <__pformat_wputchars>
   140003673:	eb b3                	jmp    140003628 <__pformat_emit_float+0xf8>
   140003675:	0f 1f 00             	nopl   (%rax)
   140003678:	8b 43 10             	mov    0x10(%rbx),%eax
   14000367b:	85 c0                	test   %eax,%eax
   14000367d:	7f 69                	jg     1400036e8 <__pformat_emit_float+0x1b8>
   14000367f:	f6 43 09 08          	testb  $0x8,0x9(%rbx)
   140003683:	0f 85 bf 00 00 00    	jne    140003748 <__pformat_emit_float+0x218>
   140003689:	83 e8 01             	sub    $0x1,%eax
   14000368c:	89 43 10             	mov    %eax,0x10(%rbx)
   14000368f:	48 83 c4 28          	add    $0x28,%rsp
   140003693:	5b                   	pop    %rbx
   140003694:	5e                   	pop    %rsi
   140003695:	5f                   	pop    %rdi
   140003696:	5d                   	pop    %rbp
   140003697:	c3                   	ret
   140003698:	0f 1f 84 00 00 00 00 	nopl   0x0(%rax,%rax,1)
   14000369f:	00 
   1400036a0:	85 c0                	test   %eax,%eax
   1400036a2:	0f 8e 18 02 00 00    	jle    1400038c0 <__pformat_emit_float+0x390>
   1400036a8:	41 8b 51 10          	mov    0x10(%r9),%edx
   1400036ac:	83 e8 01             	sub    $0x1,%eax
   1400036af:	39 d0                	cmp    %edx,%eax
   1400036b1:	0f 8f ad fe ff ff    	jg     140003564 <__pformat_emit_float+0x34>
   1400036b7:	c7 43 0c ff ff ff ff 	movl   $0xffffffff,0xc(%rbx)
   1400036be:	85 ed                	test   %ebp,%ebp
   1400036c0:	0f 84 15 ff ff ff    	je     1400035db <__pformat_emit_float+0xab>
   1400036c6:	66 2e 0f 1f 84 00 00 	cs nopw 0x0(%rax,%rax,1)
   1400036cd:	00 00 00 
   1400036d0:	48 89 da             	mov    %rbx,%rdx
   1400036d3:	b9 2d 00 00 00       	mov    $0x2d,%ecx
   1400036d8:	e8 f3 ef ff ff       	call   1400026d0 <__pformat_putc>
   1400036dd:	e9 1e ff ff ff       	jmp    140003600 <__pformat_emit_float+0xd0>
   1400036e2:	66 0f 1f 44 00 00    	nopw   0x0(%rax,%rax,1)
   1400036e8:	48 89 d9             	mov    %rbx,%rcx
   1400036eb:	e8 f0 fc ff ff       	call   1400033e0 <__pformat_emit_radix_point>
   1400036f0:	eb 21                	jmp    140003713 <__pformat_emit_float+0x1e3>
   1400036f2:	66 0f 1f 44 00 00    	nopw   0x0(%rax,%rax,1)
   1400036f8:	0f b6 07             	movzbl (%rdi),%eax
   1400036fb:	b9 30 00 00 00       	mov    $0x30,%ecx
   140003700:	84 c0                	test   %al,%al
   140003702:	74 07                	je     14000370b <__pformat_emit_float+0x1db>
   140003704:	48 83 c7 01          	add    $0x1,%rdi
   140003708:	0f be c8             	movsbl %al,%ecx
   14000370b:	48 89 da             	mov    %rbx,%rdx
   14000370e:	e8 bd ef ff ff       	call   1400026d0 <__pformat_putc>
   140003713:	8b 43 10             	mov    0x10(%rbx),%eax
   140003716:	8d 50 ff             	lea    -0x1(%rax),%edx
   140003719:	89 53 10             	mov    %edx,0x10(%rbx)
   14000371c:	85 c0                	test   %eax,%eax
   14000371e:	7f d8                	jg     1400036f8 <__pformat_emit_float+0x1c8>
   140003720:	48 83 c4 28          	add    $0x28,%rsp
   140003724:	5b                   	pop    %rbx
   140003725:	5e                   	pop    %rsi
   140003726:	5f                   	pop    %rdi
   140003727:	5d                   	pop    %rbp
   140003728:	c3                   	ret
   140003729:	0f 1f 80 00 00 00 00 	nopl   0x0(%rax)
   140003730:	48 89 da             	mov    %rbx,%rdx
   140003733:	b9 30 00 00 00       	mov    $0x30,%ecx
   140003738:	e8 93 ef ff ff       	call   1400026d0 <__pformat_putc>
   14000373d:	8b 43 10             	mov    0x10(%rbx),%eax
   140003740:	85 c0                	test   %eax,%eax
   140003742:	0f 8e a7 01 00 00    	jle    1400038ef <__pformat_emit_float+0x3bf>
   140003748:	48 89 d9             	mov    %rbx,%rcx
   14000374b:	e8 90 fc ff ff       	call   1400033e0 <__pformat_emit_radix_point>
   140003750:	85 f6                	test   %esi,%esi
   140003752:	74 bf                	je     140003713 <__pformat_emit_float+0x1e3>
   140003754:	8b 43 10             	mov    0x10(%rbx),%eax
   140003757:	01 f0                	add    %esi,%eax
   140003759:	89 43 10             	mov    %eax,0x10(%rbx)
   14000375c:	0f 1f 40 00          	nopl   0x0(%rax)
   140003760:	48 89 da             	mov    %rbx,%rdx
   140003763:	b9 30 00 00 00       	mov    $0x30,%ecx
   140003768:	e8 63 ef ff ff       	call   1400026d0 <__pformat_putc>
   14000376d:	83 c6 01             	add    $0x1,%esi
   140003770:	75 ee                	jne    140003760 <__pformat_emit_float+0x230>
   140003772:	eb 9f                	jmp    140003713 <__pformat_emit_float+0x1e3>
   140003774:	0f 1f 40 00          	nopl   0x0(%rax)
   140003778:	8d 50 ff             	lea    -0x1(%rax),%edx
   14000377b:	89 53 0c             	mov    %edx,0xc(%rbx)
   14000377e:	85 d2                	test   %edx,%edx
   140003780:	0f 84 4a ff ff ff    	je     1400036d0 <__pformat_emit_float+0x1a0>
   140003786:	f7 43 08 00 06 00 00 	testl  $0x600,0x8(%rbx)
   14000378d:	0f 85 3d ff ff ff    	jne    1400036d0 <__pformat_emit_float+0x1a0>
   140003793:	83 e8 02             	sub    $0x2,%eax
   140003796:	89 43 0c             	mov    %eax,0xc(%rbx)
   140003799:	0f 1f 80 00 00 00 00 	nopl   0x0(%rax)
   1400037a0:	48 89 da             	mov    %rbx,%rdx
   1400037a3:	b9 20 00 00 00       	mov    $0x20,%ecx
   1400037a8:	e8 23 ef ff ff       	call   1400026d0 <__pformat_putc>
   1400037ad:	8b 43 0c             	mov    0xc(%rbx),%eax
   1400037b0:	8d 50 ff             	lea    -0x1(%rax),%edx
   1400037b3:	89 53 0c             	mov    %edx,0xc(%rbx)
   1400037b6:	85 c0                	test   %eax,%eax
   1400037b8:	7f e6                	jg     1400037a0 <__pformat_emit_float+0x270>
   1400037ba:	e9 14 fe ff ff       	jmp    1400035d3 <__pformat_emit_float+0xa3>
   1400037bf:	90                   	nop
   1400037c0:	48 89 da             	mov    %rbx,%rdx
   1400037c3:	b9 2b 00 00 00       	mov    $0x2b,%ecx
   1400037c8:	e8 03 ef ff ff       	call   1400026d0 <__pformat_putc>
   1400037cd:	e9 2e fe ff ff       	jmp    140003600 <__pformat_emit_float+0xd0>
   1400037d2:	66 0f 1f 44 00 00    	nopw   0x0(%rax,%rax,1)
   1400037d8:	83 e8 01             	sub    $0x1,%eax
   1400037db:	89 43 0c             	mov    %eax,0xc(%rbx)
   1400037de:	66 90                	xchg   %ax,%ax
   1400037e0:	48 89 da             	mov    %rbx,%rdx
   1400037e3:	b9 30 00 00 00       	mov    $0x30,%ecx
   1400037e8:	e8 e3 ee ff ff       	call   1400026d0 <__pformat_putc>
   1400037ed:	8b 43 0c             	mov    0xc(%rbx),%eax
   1400037f0:	8d 50 ff             	lea    -0x1(%rax),%edx
   1400037f3:	89 53 0c             	mov    %edx,0xc(%rbx)
   1400037f6:	85 c0                	test   %eax,%eax
   1400037f8:	7f e6                	jg     1400037e0 <__pformat_emit_float+0x2b0>
   1400037fa:	e9 1d fe ff ff       	jmp    14000361c <__pformat_emit_float+0xec>
   1400037ff:	90                   	nop
   140003800:	66 41 83 79 20 00    	cmpw   $0x0,0x20(%r9)
   140003806:	0f 84 c7 fd ff ff    	je     1400035d3 <__pformat_emit_float+0xa3>
   14000380c:	b8 ff ff ff ff       	mov    $0xffffffff,%eax
   140003811:	ba ab aa aa aa       	mov    $0xaaaaaaab,%edx
   140003816:	44 8d 46 02          	lea    0x2(%rsi),%r8d
   14000381a:	4c 0f af c2          	imul   %rdx,%r8
   14000381e:	89 c2                	mov    %eax,%edx
   140003820:	49 c1 e8 21          	shr    $0x21,%r8
   140003824:	41 8d 48 ff          	lea    -0x1(%r8),%ecx
   140003828:	29 c1                	sub    %eax,%ecx
   14000382a:	41 83 f8 01          	cmp    $0x1,%r8d
   14000382e:	75 18                	jne    140003848 <__pformat_emit_float+0x318>
   140003830:	e9 53 fd ff ff       	jmp    140003588 <__pformat_emit_float+0x58>
   140003835:	0f 1f 00             	nopl   (%rax)
   140003838:	83 ea 01             	sub    $0x1,%edx
   14000383b:	89 c8                	mov    %ecx,%eax
   14000383d:	01 d0                	add    %edx,%eax
   14000383f:	89 53 0c             	mov    %edx,0xc(%rbx)
   140003842:	0f 84 a0 00 00 00    	je     1400038e8 <__pformat_emit_float+0x3b8>
   140003848:	85 d2                	test   %edx,%edx
   14000384a:	7f ec                	jg     140003838 <__pformat_emit_float+0x308>
   14000384c:	e9 82 fd ff ff       	jmp    1400035d3 <__pformat_emit_float+0xa3>
   140003851:	0f 1f 80 00 00 00 00 	nopl   0x0(%rax)
   140003858:	80 e6 06             	and    $0x6,%dh
   14000385b:	0f 85 9f fd ff ff    	jne    140003600 <__pformat_emit_float+0xd0>
   140003861:	83 e8 01             	sub    $0x1,%eax
   140003864:	e9 2d ff ff ff       	jmp    140003796 <__pformat_emit_float+0x266>
   140003869:	0f 1f 80 00 00 00 00 	nopl   0x0(%rax)
   140003870:	41 c7 41 0c ff ff ff 	movl   $0xffffffff,0xc(%r9)
   140003877:	ff 
   140003878:	b8 ff ff ff ff       	mov    $0xffffffff,%eax
   14000387d:	f6 43 09 10          	testb  $0x10,0x9(%rbx)
   140003881:	0f 84 01 fd ff ff    	je     140003588 <__pformat_emit_float+0x58>
   140003887:	66 83 7b 20 00       	cmpw   $0x0,0x20(%rbx)
   14000388c:	0f 84 f6 fc ff ff    	je     140003588 <__pformat_emit_float+0x58>
   140003892:	e9 7a ff ff ff       	jmp    140003811 <__pformat_emit_float+0x2e1>
   140003897:	66 0f 1f 84 00 00 00 	nopw   0x0(%rax,%rax,1)
   14000389e:	00 00 
   1400038a0:	8b 53 08             	mov    0x8(%rbx),%edx
   1400038a3:	f6 c6 08             	test   $0x8,%dh
   1400038a6:	0f 85 c5 fc ff ff    	jne    140003571 <__pformat_emit_float+0x41>
   1400038ac:	85 f6                	test   %esi,%esi
   1400038ae:	0f 8e d8 fc ff ff    	jle    14000358c <__pformat_emit_float+0x5c>
   1400038b4:	80 e6 10             	and    $0x10,%dh
   1400038b7:	75 ce                	jne    140003887 <__pformat_emit_float+0x357>
   1400038b9:	e9 ce fc ff ff       	jmp    14000358c <__pformat_emit_float+0x5c>
   1400038be:	66 90                	xchg   %ax,%ax
   1400038c0:	0f 85 f1 fd ff ff    	jne    1400036b7 <__pformat_emit_float+0x187>
   1400038c6:	41 8b 41 10          	mov    0x10(%r9),%eax
   1400038ca:	85 c0                	test   %eax,%eax
   1400038cc:	0f 89 e5 fd ff ff    	jns    1400036b7 <__pformat_emit_float+0x187>
   1400038d2:	f7 d8                	neg    %eax
   1400038d4:	41 89 41 0c          	mov    %eax,0xc(%r9)
   1400038d8:	41 f6 41 09 08       	testb  $0x8,0x9(%r9)
   1400038dd:	0f 85 8e fc ff ff    	jne    140003571 <__pformat_emit_float+0x41>
   1400038e3:	e9 a4 fc ff ff       	jmp    14000358c <__pformat_emit_float+0x5c>
   1400038e8:	89 d0                	mov    %edx,%eax
   1400038ea:	e9 99 fc ff ff       	jmp    140003588 <__pformat_emit_float+0x58>
   1400038ef:	f6 43 09 08          	testb  $0x8,0x9(%rbx)
   1400038f3:	0f 85 4f fe ff ff    	jne    140003748 <__pformat_emit_float+0x218>
   1400038f9:	85 f6                	test   %esi,%esi
   1400038fb:	0f 85 56 fe ff ff    	jne    140003757 <__pformat_emit_float+0x227>
   140003901:	e9 83 fd ff ff       	jmp    140003689 <__pformat_emit_float+0x159>
   140003906:	66 2e 0f 1f 84 00 00 	cs nopw 0x0(%rax,%rax,1)
   14000390d:	00 00 00 

0000000140003910 <__pformat_emit_efloat>:
   140003910:	57                   	push   %rdi
   140003911:	56                   	push   %rsi
   140003912:	53                   	push   %rbx
   140003913:	48 83 ec 20          	sub    $0x20,%rsp
   140003917:	41 ba 01 00 00 00    	mov    $0x1,%r10d
   14000391d:	41 83 e8 01          	sub    $0x1,%r8d
   140003921:	41 89 cb             	mov    %ecx,%r11d
   140003924:	4c 89 ce             	mov    %r9,%rsi
   140003927:	49 63 f8             	movslq %r8d,%rdi
   14000392a:	41 c1 f8 1f          	sar    $0x1f,%r8d
   14000392e:	48 69 cf 67 66 66 66 	imul   $0x66666667,%rdi,%rcx
   140003935:	48 c1 f9 22          	sar    $0x22,%rcx
   140003939:	44 29 c1             	sub    %r8d,%ecx
   14000393c:	74 1d                	je     14000395b <__pformat_emit_efloat+0x4b>
   14000393e:	66 90                	xchg   %ax,%ax
   140003940:	48 63 c1             	movslq %ecx,%rax
   140003943:	c1 f9 1f             	sar    $0x1f,%ecx
   140003946:	41 83 c2 01          	add    $0x1,%r10d
   14000394a:	48 69 c0 67 66 66 66 	imul   $0x66666667,%rax,%rax
   140003951:	48 c1 f8 22          	sar    $0x22,%rax
   140003955:	29 c8                	sub    %ecx,%eax
   140003957:	89 c1                	mov    %eax,%ecx
   140003959:	75 e5                	jne    140003940 <__pformat_emit_efloat+0x30>
   14000395b:	8b 46 2c             	mov    0x2c(%rsi),%eax
   14000395e:	83 f8 ff             	cmp    $0xffffffff,%eax
   140003961:	75 0c                	jne    14000396f <__pformat_emit_efloat+0x5f>
   140003963:	c7 46 2c 02 00 00 00 	movl   $0x2,0x2c(%rsi)
   14000396a:	b8 02 00 00 00       	mov    $0x2,%eax
   14000396f:	41 39 c2             	cmp    %eax,%r10d
   140003972:	44 8b 46 0c          	mov    0xc(%rsi),%r8d
   140003976:	49 89 f1             	mov    %rsi,%r9
   140003979:	41 0f 4d c2          	cmovge %r10d,%eax
   14000397d:	8d 48 02             	lea    0x2(%rax),%ecx
   140003980:	89 c3                	mov    %eax,%ebx
   140003982:	44 89 c0             	mov    %r8d,%eax
   140003985:	29 c8                	sub    %ecx,%eax
   140003987:	41 39 c8             	cmp    %ecx,%r8d
   14000398a:	b9 ff ff ff ff       	mov    $0xffffffff,%ecx
   14000398f:	41 b8 01 00 00 00    	mov    $0x1,%r8d
   140003995:	0f 4e c1             	cmovle %ecx,%eax
   140003998:	44 89 d9             	mov    %r11d,%ecx
   14000399b:	89 46 0c             	mov    %eax,0xc(%rsi)
   14000399e:	e8 8d fb ff ff       	call   140003530 <__pformat_emit_float>
   1400039a3:	8b 4e 08             	mov    0x8(%rsi),%ecx
   1400039a6:	8b 46 2c             	mov    0x2c(%rsi),%eax
   1400039a9:	48 89 f2             	mov    %rsi,%rdx
   1400039ac:	89 46 10             	mov    %eax,0x10(%rsi)
   1400039af:	89 c8                	mov    %ecx,%eax
   1400039b1:	83 e1 20             	and    $0x20,%ecx
   1400039b4:	0d c0 01 00 00       	or     $0x1c0,%eax
   1400039b9:	83 c9 45             	or     $0x45,%ecx
   1400039bc:	89 46 08             	mov    %eax,0x8(%rsi)
   1400039bf:	e8 0c ed ff ff       	call   1400026d0 <__pformat_putc>
   1400039c4:	44 8d 53 01          	lea    0x1(%rbx),%r10d
   1400039c8:	44 01 56 0c          	add    %r10d,0xc(%rsi)
   1400039cc:	48 89 f2             	mov    %rsi,%rdx
   1400039cf:	48 89 f9             	mov    %rdi,%rcx
   1400039d2:	48 83 c4 20          	add    $0x20,%rsp
   1400039d6:	5b                   	pop    %rbx
   1400039d7:	5e                   	pop    %rsi
   1400039d8:	5f                   	pop    %rdi
   1400039d9:	e9 52 f6 ff ff       	jmp    140003030 <__pformat_int.isra.0>
   1400039de:	66 90                	xchg   %ax,%ax

00000001400039e0 <__pformat_efloat>:
   1400039e0:	56                   	push   %rsi
   1400039e1:	53                   	push   %rbx
   1400039e2:	48 83 ec 58          	sub    $0x58,%rsp
   1400039e6:	44 8b 42 10          	mov    0x10(%rdx),%r8d
   1400039ea:	db 29                	fldt   (%rcx)
   1400039ec:	48 89 d3             	mov    %rdx,%rbx
   1400039ef:	45 85 c0             	test   %r8d,%r8d
   1400039f2:	78 5c                	js     140003a50 <__pformat_efloat+0x70>
   1400039f4:	41 83 c0 01          	add    $0x1,%r8d
   1400039f8:	48 8d 44 24 48       	lea    0x48(%rsp),%rax
   1400039fd:	48 8d 54 24 30       	lea    0x30(%rsp),%rdx
   140003a02:	b9 02 00 00 00       	mov    $0x2,%ecx
   140003a07:	db 7c 24 30          	fstpt  0x30(%rsp)
   140003a0b:	4c 8d 4c 24 4c       	lea    0x4c(%rsp),%r9
   140003a10:	48 89 44 24 20       	mov    %rax,0x20(%rsp)
   140003a15:	e8 c6 eb ff ff       	call   1400025e0 <__pformat_cvt>
   140003a1a:	44 8b 44 24 4c       	mov    0x4c(%rsp),%r8d
   140003a1f:	48 89 c6             	mov    %rax,%rsi
   140003a22:	41 81 f8 00 80 ff ff 	cmp    $0xffff8000,%r8d
   140003a29:	74 35                	je     140003a60 <__pformat_efloat+0x80>
   140003a2b:	8b 4c 24 48          	mov    0x48(%rsp),%ecx
   140003a2f:	49 89 d9             	mov    %rbx,%r9
   140003a32:	48 89 c2             	mov    %rax,%rdx
   140003a35:	e8 d6 fe ff ff       	call   140003910 <__pformat_emit_efloat>
   140003a3a:	48 89 f1             	mov    %rsi,%rcx
   140003a3d:	e8 ee 12 00 00       	call   140004d30 <__freedtoa>
   140003a42:	90                   	nop
   140003a43:	48 83 c4 58          	add    $0x58,%rsp
   140003a47:	5b                   	pop    %rbx
   140003a48:	5e                   	pop    %rsi
   140003a49:	c3                   	ret
   140003a4a:	66 0f 1f 44 00 00    	nopw   0x0(%rax,%rax,1)
   140003a50:	c7 42 10 06 00 00 00 	movl   $0x6,0x10(%rdx)
   140003a57:	41 b8 07 00 00 00    	mov    $0x7,%r8d
   140003a5d:	eb 99                	jmp    1400039f8 <__pformat_efloat+0x18>
   140003a5f:	90                   	nop
   140003a60:	8b 4c 24 48          	mov    0x48(%rsp),%ecx
   140003a64:	49 89 d8             	mov    %rbx,%r8
   140003a67:	48 89 c2             	mov    %rax,%rdx
   140003a6a:	e8 f1 ef ff ff       	call   140002a60 <__pformat_emit_inf_or_nan>
   140003a6f:	48 89 f1             	mov    %rsi,%rcx
   140003a72:	e8 b9 12 00 00       	call   140004d30 <__freedtoa>
   140003a77:	90                   	nop
   140003a78:	48 83 c4 58          	add    $0x58,%rsp
   140003a7c:	5b                   	pop    %rbx
   140003a7d:	5e                   	pop    %rsi
   140003a7e:	c3                   	ret
   140003a7f:	90                   	nop

0000000140003a80 <__pformat_float>:
   140003a80:	56                   	push   %rsi
   140003a81:	53                   	push   %rbx
   140003a82:	48 83 ec 58          	sub    $0x58,%rsp
   140003a86:	44 8b 42 10          	mov    0x10(%rdx),%r8d
   140003a8a:	db 29                	fldt   (%rcx)
   140003a8c:	48 89 d3             	mov    %rdx,%rbx
   140003a8f:	45 85 c0             	test   %r8d,%r8d
   140003a92:	79 0d                	jns    140003aa1 <__pformat_float+0x21>
   140003a94:	c7 42 10 06 00 00 00 	movl   $0x6,0x10(%rdx)
   140003a9b:	41 b8 06 00 00 00    	mov    $0x6,%r8d
   140003aa1:	48 8d 44 24 48       	lea    0x48(%rsp),%rax
   140003aa6:	48 8d 54 24 30       	lea    0x30(%rsp),%rdx
   140003aab:	b9 03 00 00 00       	mov    $0x3,%ecx
   140003ab0:	db 7c 24 30          	fstpt  0x30(%rsp)
   140003ab4:	4c 8d 4c 24 4c       	lea    0x4c(%rsp),%r9
   140003ab9:	48 89 44 24 20       	mov    %rax,0x20(%rsp)
   140003abe:	e8 1d eb ff ff       	call   1400025e0 <__pformat_cvt>
   140003ac3:	44 8b 44 24 4c       	mov    0x4c(%rsp),%r8d
   140003ac8:	48 89 c6             	mov    %rax,%rsi
   140003acb:	41 81 f8 00 80 ff ff 	cmp    $0xffff8000,%r8d
   140003ad2:	74 6c                	je     140003b40 <__pformat_float+0xc0>
   140003ad4:	8b 4c 24 48          	mov    0x48(%rsp),%ecx
   140003ad8:	48 89 c2             	mov    %rax,%rdx
   140003adb:	49 89 d9             	mov    %rbx,%r9
   140003ade:	e8 4d fa ff ff       	call   140003530 <__pformat_emit_float>
   140003ae3:	8b 43 0c             	mov    0xc(%rbx),%eax
   140003ae6:	eb 1c                	jmp    140003b04 <__pformat_float+0x84>
   140003ae8:	0f 1f 84 00 00 00 00 	nopl   0x0(%rax,%rax,1)
   140003aef:	00 
   140003af0:	48 63 43 24          	movslq 0x24(%rbx),%rax
   140003af4:	c6 04 02 20          	movb   $0x20,(%rdx,%rax,1)
   140003af8:	8b 53 24             	mov    0x24(%rbx),%edx
   140003afb:	8b 43 0c             	mov    0xc(%rbx),%eax
   140003afe:	83 c2 01             	add    $0x1,%edx
   140003b01:	89 53 24             	mov    %edx,0x24(%rbx)
   140003b04:	89 c2                	mov    %eax,%edx
   140003b06:	83 e8 01             	sub    $0x1,%eax
   140003b09:	89 43 0c             	mov    %eax,0xc(%rbx)
   140003b0c:	85 d2                	test   %edx,%edx
   140003b0e:	7e 3f                	jle    140003b4f <__pformat_float+0xcf>
   140003b10:	8b 4b 08             	mov    0x8(%rbx),%ecx
   140003b13:	f6 c5 40             	test   $0x40,%ch
   140003b16:	75 08                	jne    140003b20 <__pformat_float+0xa0>
   140003b18:	8b 53 24             	mov    0x24(%rbx),%edx
   140003b1b:	39 53 28             	cmp    %edx,0x28(%rbx)
   140003b1e:	7e de                	jle    140003afe <__pformat_float+0x7e>
   140003b20:	48 8b 13             	mov    (%rbx),%rdx
   140003b23:	80 e5 20             	and    $0x20,%ch
   140003b26:	74 c8                	je     140003af0 <__pformat_float+0x70>
   140003b28:	b9 20 00 00 00       	mov    $0x20,%ecx
   140003b2d:	e8 8e 40 00 00       	call   140007bc0 <fputc>
   140003b32:	8b 53 24             	mov    0x24(%rbx),%edx
   140003b35:	8b 43 0c             	mov    0xc(%rbx),%eax
   140003b38:	eb c4                	jmp    140003afe <__pformat_float+0x7e>
   140003b3a:	66 0f 1f 44 00 00    	nopw   0x0(%rax,%rax,1)
   140003b40:	8b 4c 24 48          	mov    0x48(%rsp),%ecx
   140003b44:	49 89 d8             	mov    %rbx,%r8
   140003b47:	48 89 c2             	mov    %rax,%rdx
   140003b4a:	e8 11 ef ff ff       	call   140002a60 <__pformat_emit_inf_or_nan>
   140003b4f:	48 89 f1             	mov    %rsi,%rcx
   140003b52:	e8 d9 11 00 00       	call   140004d30 <__freedtoa>
   140003b57:	90                   	nop
   140003b58:	48 83 c4 58          	add    $0x58,%rsp
   140003b5c:	5b                   	pop    %rbx
   140003b5d:	5e                   	pop    %rsi
   140003b5e:	c3                   	ret
   140003b5f:	90                   	nop

0000000140003b60 <__pformat_gfloat>:
   140003b60:	57                   	push   %rdi
   140003b61:	56                   	push   %rsi
   140003b62:	53                   	push   %rbx
   140003b63:	48 83 ec 50          	sub    $0x50,%rsp
   140003b67:	44 8b 42 10          	mov    0x10(%rdx),%r8d
   140003b6b:	db 29                	fldt   (%rcx)
   140003b6d:	48 89 d3             	mov    %rdx,%rbx
   140003b70:	45 85 c0             	test   %r8d,%r8d
   140003b73:	0f 88 ff 00 00 00    	js     140003c78 <__pformat_gfloat+0x118>
   140003b79:	0f 84 e1 00 00 00    	je     140003c60 <__pformat_gfloat+0x100>
   140003b7f:	48 8d 44 24 48       	lea    0x48(%rsp),%rax
   140003b84:	48 8d 54 24 30       	lea    0x30(%rsp),%rdx
   140003b89:	b9 02 00 00 00       	mov    $0x2,%ecx
   140003b8e:	db 7c 24 30          	fstpt  0x30(%rsp)
   140003b92:	4c 8d 4c 24 4c       	lea    0x4c(%rsp),%r9
   140003b97:	48 89 44 24 20       	mov    %rax,0x20(%rsp)
   140003b9c:	e8 3f ea ff ff       	call   1400025e0 <__pformat_cvt>
   140003ba1:	8b 7c 24 4c          	mov    0x4c(%rsp),%edi
   140003ba5:	48 89 c6             	mov    %rax,%rsi
   140003ba8:	81 ff 00 80 ff ff    	cmp    $0xffff8000,%edi
   140003bae:	0f 84 dc 00 00 00    	je     140003c90 <__pformat_gfloat+0x130>
   140003bb4:	8b 43 08             	mov    0x8(%rbx),%eax
   140003bb7:	25 00 08 00 00       	and    $0x800,%eax
   140003bbc:	83 ff fd             	cmp    $0xfffffffd,%edi
   140003bbf:	7c 5f                	jl     140003c20 <__pformat_gfloat+0xc0>
   140003bc1:	8b 53 10             	mov    0x10(%rbx),%edx
   140003bc4:	39 d7                	cmp    %edx,%edi
   140003bc6:	7f 58                	jg     140003c20 <__pformat_gfloat+0xc0>
   140003bc8:	85 c0                	test   %eax,%eax
   140003bca:	0f 84 e0 00 00 00    	je     140003cb0 <__pformat_gfloat+0x150>
   140003bd0:	29 fa                	sub    %edi,%edx
   140003bd2:	89 53 10             	mov    %edx,0x10(%rbx)
   140003bd5:	8b 4c 24 48          	mov    0x48(%rsp),%ecx
   140003bd9:	49 89 d9             	mov    %rbx,%r9
   140003bdc:	41 89 f8             	mov    %edi,%r8d
   140003bdf:	48 89 f2             	mov    %rsi,%rdx
   140003be2:	e8 49 f9 ff ff       	call   140003530 <__pformat_emit_float>
   140003be7:	eb 14                	jmp    140003bfd <__pformat_gfloat+0x9d>
   140003be9:	0f 1f 80 00 00 00 00 	nopl   0x0(%rax)
   140003bf0:	48 89 da             	mov    %rbx,%rdx
   140003bf3:	b9 20 00 00 00       	mov    $0x20,%ecx
   140003bf8:	e8 d3 ea ff ff       	call   1400026d0 <__pformat_putc>
   140003bfd:	8b 43 0c             	mov    0xc(%rbx),%eax
   140003c00:	8d 50 ff             	lea    -0x1(%rax),%edx
   140003c03:	89 53 0c             	mov    %edx,0xc(%rbx)
   140003c06:	85 c0                	test   %eax,%eax
   140003c08:	7f e6                	jg     140003bf0 <__pformat_gfloat+0x90>
   140003c0a:	48 89 f1             	mov    %rsi,%rcx
   140003c0d:	e8 1e 11 00 00       	call   140004d30 <__freedtoa>
   140003c12:	90                   	nop
   140003c13:	48 83 c4 50          	add    $0x50,%rsp
   140003c17:	5b                   	pop    %rbx
   140003c18:	5e                   	pop    %rsi
   140003c19:	5f                   	pop    %rdi
   140003c1a:	c3                   	ret
   140003c1b:	0f 1f 44 00 00       	nopl   0x0(%rax,%rax,1)
   140003c20:	85 c0                	test   %eax,%eax
   140003c22:	75 34                	jne    140003c58 <__pformat_gfloat+0xf8>
   140003c24:	48 89 f1             	mov    %rsi,%rcx
   140003c27:	e8 dc 3f 00 00       	call   140007c08 <strlen>
   140003c2c:	83 e8 01             	sub    $0x1,%eax
   140003c2f:	89 43 10             	mov    %eax,0x10(%rbx)
   140003c32:	8b 4c 24 48          	mov    0x48(%rsp),%ecx
   140003c36:	49 89 d9             	mov    %rbx,%r9
   140003c39:	41 89 f8             	mov    %edi,%r8d
   140003c3c:	48 89 f2             	mov    %rsi,%rdx
   140003c3f:	e8 cc fc ff ff       	call   140003910 <__pformat_emit_efloat>
   140003c44:	48 89 f1             	mov    %rsi,%rcx
   140003c47:	e8 e4 10 00 00       	call   140004d30 <__freedtoa>
   140003c4c:	90                   	nop
   140003c4d:	48 83 c4 50          	add    $0x50,%rsp
   140003c51:	5b                   	pop    %rbx
   140003c52:	5e                   	pop    %rsi
   140003c53:	5f                   	pop    %rdi
   140003c54:	c3                   	ret
   140003c55:	0f 1f 00             	nopl   (%rax)
   140003c58:	8b 43 10             	mov    0x10(%rbx),%eax
   140003c5b:	83 e8 01             	sub    $0x1,%eax
   140003c5e:	eb cf                	jmp    140003c2f <__pformat_gfloat+0xcf>
   140003c60:	c7 42 10 01 00 00 00 	movl   $0x1,0x10(%rdx)
   140003c67:	41 b8 01 00 00 00    	mov    $0x1,%r8d
   140003c6d:	e9 0d ff ff ff       	jmp    140003b7f <__pformat_gfloat+0x1f>
   140003c72:	66 0f 1f 44 00 00    	nopw   0x0(%rax,%rax,1)
   140003c78:	c7 42 10 06 00 00 00 	movl   $0x6,0x10(%rdx)
   140003c7f:	41 b8 06 00 00 00    	mov    $0x6,%r8d
   140003c85:	e9 f5 fe ff ff       	jmp    140003b7f <__pformat_gfloat+0x1f>
   140003c8a:	66 0f 1f 44 00 00    	nopw   0x0(%rax,%rax,1)
   140003c90:	8b 4c 24 48          	mov    0x48(%rsp),%ecx
   140003c94:	49 89 d8             	mov    %rbx,%r8
   140003c97:	48 89 c2             	mov    %rax,%rdx
   140003c9a:	e8 c1 ed ff ff       	call   140002a60 <__pformat_emit_inf_or_nan>
   140003c9f:	48 89 f1             	mov    %rsi,%rcx
   140003ca2:	e8 89 10 00 00       	call   140004d30 <__freedtoa>
   140003ca7:	90                   	nop
   140003ca8:	48 83 c4 50          	add    $0x50,%rsp
   140003cac:	5b                   	pop    %rbx
   140003cad:	5e                   	pop    %rsi
   140003cae:	5f                   	pop    %rdi
   140003caf:	c3                   	ret
   140003cb0:	48 89 f1             	mov    %rsi,%rcx
   140003cb3:	e8 50 3f 00 00       	call   140007c08 <strlen>
   140003cb8:	29 f8                	sub    %edi,%eax
   140003cba:	89 43 10             	mov    %eax,0x10(%rbx)
   140003cbd:	0f 89 12 ff ff ff    	jns    140003bd5 <__pformat_gfloat+0x75>
   140003cc3:	8b 53 0c             	mov    0xc(%rbx),%edx
   140003cc6:	85 d2                	test   %edx,%edx
   140003cc8:	0f 8e 07 ff ff ff    	jle    140003bd5 <__pformat_gfloat+0x75>
   140003cce:	01 d0                	add    %edx,%eax
   140003cd0:	89 43 0c             	mov    %eax,0xc(%rbx)
   140003cd3:	e9 fd fe ff ff       	jmp    140003bd5 <__pformat_gfloat+0x75>
   140003cd8:	0f 1f 84 00 00 00 00 	nopl   0x0(%rax,%rax,1)
   140003cdf:	00 

0000000140003ce0 <__pformat_emit_xfloat.isra.0>:
   140003ce0:	41 55                	push   %r13
   140003ce2:	41 54                	push   %r12
   140003ce4:	55                   	push   %rbp
   140003ce5:	57                   	push   %rdi
   140003ce6:	56                   	push   %rsi
   140003ce7:	53                   	push   %rbx
   140003ce8:	48 83 ec 58          	sub    $0x58,%rsp
   140003cec:	45 8b 50 10          	mov    0x10(%r8),%r10d
   140003cf0:	49 89 c9             	mov    %rcx,%r9
   140003cf3:	4c 89 c3             	mov    %r8,%rbx
   140003cf6:	66 85 d2             	test   %dx,%dx
   140003cf9:	75 09                	jne    140003d04 <__pformat_emit_xfloat.isra.0+0x24>
   140003cfb:	48 85 c9             	test   %rcx,%rcx
   140003cfe:	0f 84 ec 00 00 00    	je     140003df0 <__pformat_emit_xfloat.isra.0+0x110>
   140003d04:	44 8d 42 fd          	lea    -0x3(%rdx),%r8d
   140003d08:	41 83 fa 0e          	cmp    $0xe,%r10d
   140003d0c:	0f 86 96 00 00 00    	jbe    140003da8 <__pformat_emit_xfloat.isra.0+0xc8>
   140003d12:	49 0f bf e8          	movswq %r8w,%rbp
   140003d16:	ba 10 00 00 00       	mov    $0x10,%edx
   140003d1b:	4d 85 c9             	test   %r9,%r9
   140003d1e:	0f 84 0c 04 00 00    	je     140004130 <__pformat_emit_xfloat.isra.0+0x450>
   140003d24:	8b 4b 08             	mov    0x8(%rbx),%ecx
   140003d27:	48 8d 7c 24 30       	lea    0x30(%rsp),%rdi
   140003d2c:	48 89 fe             	mov    %rdi,%rsi
   140003d2f:	41 89 cb             	mov    %ecx,%r11d
   140003d32:	41 89 cc             	mov    %ecx,%r12d
   140003d35:	41 83 e3 20          	and    $0x20,%r11d
   140003d39:	41 81 e4 00 08 00 00 	and    $0x800,%r12d
   140003d40:	eb 2d                	jmp    140003d6f <__pformat_emit_xfloat.isra.0+0x8f>
   140003d42:	66 0f 1f 44 00 00    	nopw   0x0(%rax,%rax,1)
   140003d48:	4c 39 d7             	cmp    %r10,%rdi
   140003d4b:	72 0b                	jb     140003d58 <__pformat_emit_xfloat.isra.0+0x78>
   140003d4d:	8b 73 10             	mov    0x10(%rbx),%esi
   140003d50:	85 f6                	test   %esi,%esi
   140003d52:	0f 88 78 03 00 00    	js     1400040d0 <__pformat_emit_xfloat.isra.0+0x3f0>
   140003d58:	83 c0 30             	add    $0x30,%eax
   140003d5b:	41 88 02             	mov    %al,(%r10)
   140003d5e:	49 8d 72 01          	lea    0x1(%r10),%rsi
   140003d62:	49 c1 e9 04          	shr    $0x4,%r9
   140003d66:	83 ea 01             	sub    $0x1,%edx
   140003d69:	0f 84 f1 01 00 00    	je     140003f60 <__pformat_emit_xfloat.isra.0+0x280>
   140003d6f:	44 89 c8             	mov    %r9d,%eax
   140003d72:	83 e0 0f             	and    $0xf,%eax
   140003d75:	83 fa 01             	cmp    $0x1,%edx
   140003d78:	0f 84 a2 01 00 00    	je     140003f20 <__pformat_emit_xfloat.isra.0+0x240>
   140003d7e:	44 8b 53 10          	mov    0x10(%rbx),%r10d
   140003d82:	45 85 d2             	test   %r10d,%r10d
   140003d85:	7e 08                	jle    140003d8f <__pformat_emit_xfloat.isra.0+0xaf>
   140003d87:	41 83 ea 01          	sub    $0x1,%r10d
   140003d8b:	44 89 53 10          	mov    %r10d,0x10(%rbx)
   140003d8f:	49 89 f2             	mov    %rsi,%r10
   140003d92:	85 c0                	test   %eax,%eax
   140003d94:	74 b2                	je     140003d48 <__pformat_emit_xfloat.isra.0+0x68>
   140003d96:	83 f8 09             	cmp    $0x9,%eax
   140003d99:	76 bd                	jbe    140003d58 <__pformat_emit_xfloat.isra.0+0x78>
   140003d9b:	83 c0 37             	add    $0x37,%eax
   140003d9e:	44 09 d8             	or     %r11d,%eax
   140003da1:	eb b8                	jmp    140003d5b <__pformat_emit_xfloat.isra.0+0x7b>
   140003da3:	0f 1f 44 00 00       	nopl   0x0(%rax,%rax,1)
   140003da8:	b9 0e 00 00 00       	mov    $0xe,%ecx
   140003dad:	b8 04 00 00 00       	mov    $0x4,%eax
   140003db2:	49 d1 e9             	shr    %r9
   140003db5:	44 29 d1             	sub    %r10d,%ecx
   140003db8:	c1 e1 02             	shl    $0x2,%ecx
   140003dbb:	48 d3 e0             	shl    %cl,%rax
   140003dbe:	4c 01 c8             	add    %r9,%rax
   140003dc1:	0f 89 59 03 00 00    	jns    140004120 <__pformat_emit_xfloat.isra.0+0x440>
   140003dc7:	b9 0f 00 00 00       	mov    $0xf,%ecx
   140003dcc:	48 c1 e8 03          	shr    $0x3,%rax
   140003dd0:	44 8d 42 01          	lea    0x1(%rdx),%r8d
   140003dd4:	44 29 d1             	sub    %r10d,%ecx
   140003dd7:	49 0f bf e8          	movswq %r8w,%rbp
   140003ddb:	c1 e1 02             	shl    $0x2,%ecx
   140003dde:	48 d3 e8             	shr    %cl,%rax
   140003de1:	49 89 c1             	mov    %rax,%r9
   140003de4:	41 8d 52 01          	lea    0x1(%r10),%edx
   140003de8:	e9 37 ff ff ff       	jmp    140003d24 <__pformat_emit_xfloat.isra.0+0x44>
   140003ded:	0f 1f 00             	nopl   (%rax)
   140003df0:	41 83 fa 0e          	cmp    $0xe,%r10d
   140003df4:	0f 87 0e 03 00 00    	ja     140004108 <__pformat_emit_xfloat.isra.0+0x428>
   140003dfa:	b9 0e 00 00 00       	mov    $0xe,%ecx
   140003dff:	b8 04 00 00 00       	mov    $0x4,%eax
   140003e04:	31 ed                	xor    %ebp,%ebp
   140003e06:	45 31 c0             	xor    %r8d,%r8d
   140003e09:	44 29 d1             	sub    %r10d,%ecx
   140003e0c:	c1 e1 02             	shl    $0x2,%ecx
   140003e0f:	48 d3 e0             	shl    %cl,%rax
   140003e12:	b9 0f 00 00 00       	mov    $0xf,%ecx
   140003e17:	48 01 c0             	add    %rax,%rax
   140003e1a:	44 29 d1             	sub    %r10d,%ecx
   140003e1d:	c1 e1 02             	shl    $0x2,%ecx
   140003e20:	48 d3 e8             	shr    %cl,%rax
   140003e23:	49 89 c1             	mov    %rax,%r9
   140003e26:	48 85 c0             	test   %rax,%rax
   140003e29:	75 b9                	jne    140003de4 <__pformat_emit_xfloat.isra.0+0x104>
   140003e2b:	45 85 d2             	test   %r10d,%r10d
   140003e2e:	75 b4                	jne    140003de4 <__pformat_emit_xfloat.isra.0+0x104>
   140003e30:	8b 4b 08             	mov    0x8(%rbx),%ecx
   140003e33:	48 8d 7c 24 30       	lea    0x30(%rsp),%rdi
   140003e38:	48 89 f8             	mov    %rdi,%rax
   140003e3b:	f6 c5 08             	test   $0x8,%ch
   140003e3e:	74 0a                	je     140003e4a <__pformat_emit_xfloat.isra.0+0x16a>
   140003e40:	c6 44 24 30 2e       	movb   $0x2e,0x30(%rsp)
   140003e45:	48 8d 44 24 31       	lea    0x31(%rsp),%rax
   140003e4a:	44 8b 53 0c          	mov    0xc(%rbx),%r10d
   140003e4e:	c6 00 30             	movb   $0x30,(%rax)
   140003e51:	48 8d 70 01          	lea    0x1(%rax),%rsi
   140003e55:	41 bc 02 00 00 00    	mov    $0x2,%r12d
   140003e5b:	45 85 d2             	test   %r10d,%r10d
   140003e5e:	0f 8f 18 01 00 00    	jg     140003f7c <__pformat_emit_xfloat.isra.0+0x29c>
   140003e64:	f6 c1 80             	test   $0x80,%cl
   140003e67:	0f 85 d3 01 00 00    	jne    140004040 <__pformat_emit_xfloat.isra.0+0x360>
   140003e6d:	f6 c5 01             	test   $0x1,%ch
   140003e70:	0f 85 7a 02 00 00    	jne    1400040f0 <__pformat_emit_xfloat.isra.0+0x410>
   140003e76:	83 e1 40             	and    $0x40,%ecx
   140003e79:	0f 85 c1 02 00 00    	jne    140004140 <__pformat_emit_xfloat.isra.0+0x460>
   140003e7f:	48 89 da             	mov    %rbx,%rdx
   140003e82:	b9 30 00 00 00       	mov    $0x30,%ecx
   140003e87:	e8 44 e8 ff ff       	call   1400026d0 <__pformat_putc>
   140003e8c:	8b 4b 08             	mov    0x8(%rbx),%ecx
   140003e8f:	48 89 da             	mov    %rbx,%rdx
   140003e92:	83 e1 20             	and    $0x20,%ecx
   140003e95:	83 c9 58             	or     $0x58,%ecx
   140003e98:	e8 33 e8 ff ff       	call   1400026d0 <__pformat_putc>
   140003e9d:	8b 43 0c             	mov    0xc(%rbx),%eax
   140003ea0:	85 c0                	test   %eax,%eax
   140003ea2:	7e 26                	jle    140003eca <__pformat_emit_xfloat.isra.0+0x1ea>
   140003ea4:	f6 43 09 02          	testb  $0x2,0x9(%rbx)
   140003ea8:	74 20                	je     140003eca <__pformat_emit_xfloat.isra.0+0x1ea>
   140003eaa:	83 e8 01             	sub    $0x1,%eax
   140003ead:	89 43 0c             	mov    %eax,0xc(%rbx)
   140003eb0:	48 89 da             	mov    %rbx,%rdx
   140003eb3:	b9 30 00 00 00       	mov    $0x30,%ecx
   140003eb8:	e8 13 e8 ff ff       	call   1400026d0 <__pformat_putc>
   140003ebd:	8b 43 0c             	mov    0xc(%rbx),%eax
   140003ec0:	8d 50 ff             	lea    -0x1(%rax),%edx
   140003ec3:	89 53 0c             	mov    %edx,0xc(%rbx)
   140003ec6:	85 c0                	test   %eax,%eax
   140003ec8:	7f e6                	jg     140003eb0 <__pformat_emit_xfloat.isra.0+0x1d0>
   140003eca:	4c 8d 6c 24 2e       	lea    0x2e(%rsp),%r13
   140003ecf:	48 39 f7             	cmp    %rsi,%rdi
   140003ed2:	72 27                	jb     140003efb <__pformat_emit_xfloat.isra.0+0x21b>
   140003ed4:	e9 8c 01 00 00       	jmp    140004065 <__pformat_emit_xfloat.isra.0+0x385>
   140003ed9:	0f 1f 80 00 00 00 00 	nopl   0x0(%rax)
   140003ee0:	0f b7 43 20          	movzwl 0x20(%rbx),%eax
   140003ee4:	66 89 44 24 2e       	mov    %ax,0x2e(%rsp)
   140003ee9:	66 85 c0             	test   %ax,%ax
   140003eec:	0f 85 c6 01 00 00    	jne    1400040b8 <__pformat_emit_xfloat.isra.0+0x3d8>
   140003ef2:	48 39 fe             	cmp    %rdi,%rsi
   140003ef5:	0f 84 6a 01 00 00    	je     140004065 <__pformat_emit_xfloat.isra.0+0x385>
   140003efb:	0f be 4e ff          	movsbl -0x1(%rsi),%ecx
   140003eff:	48 83 ee 01          	sub    $0x1,%rsi
   140003f03:	83 f9 2e             	cmp    $0x2e,%ecx
   140003f06:	0f 84 9c 01 00 00    	je     1400040a8 <__pformat_emit_xfloat.isra.0+0x3c8>
   140003f0c:	83 f9 2c             	cmp    $0x2c,%ecx
   140003f0f:	74 cf                	je     140003ee0 <__pformat_emit_xfloat.isra.0+0x200>
   140003f11:	48 89 da             	mov    %rbx,%rdx
   140003f14:	e8 b7 e7 ff ff       	call   1400026d0 <__pformat_putc>
   140003f19:	eb d7                	jmp    140003ef2 <__pformat_emit_xfloat.isra.0+0x212>
   140003f1b:	0f 1f 44 00 00       	nopl   0x0(%rax,%rax,1)
   140003f20:	48 39 f7             	cmp    %rsi,%rdi
   140003f23:	72 1b                	jb     140003f40 <__pformat_emit_xfloat.isra.0+0x260>
   140003f25:	45 85 e4             	test   %r12d,%r12d
   140003f28:	75 16                	jne    140003f40 <__pformat_emit_xfloat.isra.0+0x260>
   140003f2a:	44 8b 53 10          	mov    0x10(%rbx),%r10d
   140003f2e:	45 85 d2             	test   %r10d,%r10d
   140003f31:	0f 8e 21 02 00 00    	jle    140004158 <__pformat_emit_xfloat.isra.0+0x478>
   140003f37:	66 0f 1f 84 00 00 00 	nopw   0x0(%rax,%rax,1)
   140003f3e:	00 00 
   140003f40:	c6 06 2e             	movb   $0x2e,(%rsi)
   140003f43:	4c 8d 56 01          	lea    0x1(%rsi),%r10
   140003f47:	e9 46 fe ff ff       	jmp    140003d92 <__pformat_emit_xfloat.isra.0+0xb2>
   140003f4c:	45 85 d2             	test   %r10d,%r10d
   140003f4f:	75 0f                	jne    140003f60 <__pformat_emit_xfloat.isra.0+0x280>
   140003f51:	c6 06 30             	movb   $0x30,(%rsi)
   140003f54:	48 83 c6 01          	add    $0x1,%rsi
   140003f58:	0f 1f 84 00 00 00 00 	nopl   0x0(%rax,%rax,1)
   140003f5f:	00 
   140003f60:	48 39 fe             	cmp    %rdi,%rsi
   140003f63:	0f 84 07 02 00 00    	je     140004170 <__pformat_emit_xfloat.isra.0+0x490>
   140003f69:	44 8b 53 0c          	mov    0xc(%rbx),%r10d
   140003f6d:	41 bc 02 00 00 00    	mov    $0x2,%r12d
   140003f73:	45 85 d2             	test   %r10d,%r10d
   140003f76:	0f 8e e8 fe ff ff    	jle    140003e64 <__pformat_emit_xfloat.isra.0+0x184>
   140003f7c:	8b 53 10             	mov    0x10(%rbx),%edx
   140003f7f:	49 89 f1             	mov    %rsi,%r9
   140003f82:	41 0f bf c0          	movswl %r8w,%eax
   140003f86:	49 29 f9             	sub    %rdi,%r9
   140003f89:	46 8d 1c 0a          	lea    (%rdx,%r9,1),%r11d
   140003f8d:	85 d2                	test   %edx,%edx
   140003f8f:	89 ca                	mov    %ecx,%edx
   140003f91:	45 0f 4f cb          	cmovg  %r11d,%r9d
   140003f95:	81 e2 c0 01 00 00    	and    $0x1c0,%edx
   140003f9b:	83 fa 01             	cmp    $0x1,%edx
   140003f9e:	49 0f bf d0          	movswq %r8w,%rdx
   140003fa2:	41 83 d9 fa          	sbb    $0xfffffffa,%r9d
   140003fa6:	48 69 d2 67 66 66 66 	imul   $0x66666667,%rdx,%rdx
   140003fad:	c1 f8 1f             	sar    $0x1f,%eax
   140003fb0:	45 89 cb             	mov    %r9d,%r11d
   140003fb3:	48 c1 fa 22          	sar    $0x22,%rdx
   140003fb7:	29 c2                	sub    %eax,%edx
   140003fb9:	74 2e                	je     140003fe9 <__pformat_emit_xfloat.isra.0+0x309>
   140003fbb:	0f 1f 44 00 00       	nopl   0x0(%rax,%rax,1)
   140003fc0:	48 63 c2             	movslq %edx,%rax
   140003fc3:	c1 fa 1f             	sar    $0x1f,%edx
   140003fc6:	41 83 c3 01          	add    $0x1,%r11d
   140003fca:	48 69 c0 67 66 66 66 	imul   $0x66666667,%rax,%rax
   140003fd1:	48 c1 f8 22          	sar    $0x22,%rax
   140003fd5:	29 d0                	sub    %edx,%eax
   140003fd7:	89 c2                	mov    %eax,%edx
   140003fd9:	75 e5                	jne    140003fc0 <__pformat_emit_xfloat.isra.0+0x2e0>
   140003fdb:	45 89 dc             	mov    %r11d,%r12d
   140003fde:	45 29 cc             	sub    %r9d,%r12d
   140003fe1:	41 83 c4 02          	add    $0x2,%r12d
   140003fe5:	45 0f bf e4          	movswl %r12w,%r12d
   140003fe9:	45 39 da             	cmp    %r11d,%r10d
   140003fec:	0f 8e ee 00 00 00    	jle    1400040e0 <__pformat_emit_xfloat.isra.0+0x400>
   140003ff2:	45 29 da             	sub    %r11d,%r10d
   140003ff5:	f6 c5 06             	test   $0x6,%ch
   140003ff8:	0f 85 e8 00 00 00    	jne    1400040e6 <__pformat_emit_xfloat.isra.0+0x406>
   140003ffe:	41 83 ea 01          	sub    $0x1,%r10d
   140004002:	44 89 53 0c          	mov    %r10d,0xc(%rbx)
   140004006:	66 2e 0f 1f 84 00 00 	cs nopw 0x0(%rax,%rax,1)
   14000400d:	00 00 00 
   140004010:	48 89 da             	mov    %rbx,%rdx
   140004013:	b9 20 00 00 00       	mov    $0x20,%ecx
   140004018:	e8 b3 e6 ff ff       	call   1400026d0 <__pformat_putc>
   14000401d:	8b 43 0c             	mov    0xc(%rbx),%eax
   140004020:	8d 50 ff             	lea    -0x1(%rax),%edx
   140004023:	89 53 0c             	mov    %edx,0xc(%rbx)
   140004026:	85 c0                	test   %eax,%eax
   140004028:	7f e6                	jg     140004010 <__pformat_emit_xfloat.isra.0+0x330>
   14000402a:	8b 4b 08             	mov    0x8(%rbx),%ecx
   14000402d:	f6 c1 80             	test   $0x80,%cl
   140004030:	0f 84 37 fe ff ff    	je     140003e6d <__pformat_emit_xfloat.isra.0+0x18d>
   140004036:	66 2e 0f 1f 84 00 00 	cs nopw 0x0(%rax,%rax,1)
   14000403d:	00 00 00 
   140004040:	48 89 da             	mov    %rbx,%rdx
   140004043:	b9 2d 00 00 00       	mov    $0x2d,%ecx
   140004048:	e8 83 e6 ff ff       	call   1400026d0 <__pformat_putc>
   14000404d:	e9 2d fe ff ff       	jmp    140003e7f <__pformat_emit_xfloat.isra.0+0x19f>
   140004052:	66 0f 1f 44 00 00    	nopw   0x0(%rax,%rax,1)
   140004058:	48 89 da             	mov    %rbx,%rdx
   14000405b:	b9 30 00 00 00       	mov    $0x30,%ecx
   140004060:	e8 6b e6 ff ff       	call   1400026d0 <__pformat_putc>
   140004065:	8b 43 10             	mov    0x10(%rbx),%eax
   140004068:	8d 50 ff             	lea    -0x1(%rax),%edx
   14000406b:	89 53 10             	mov    %edx,0x10(%rbx)
   14000406e:	85 c0                	test   %eax,%eax
   140004070:	7f e6                	jg     140004058 <__pformat_emit_xfloat.isra.0+0x378>
   140004072:	8b 4b 08             	mov    0x8(%rbx),%ecx
   140004075:	48 89 da             	mov    %rbx,%rdx
   140004078:	83 e1 20             	and    $0x20,%ecx
   14000407b:	83 c9 50             	or     $0x50,%ecx
   14000407e:	e8 4d e6 ff ff       	call   1400026d0 <__pformat_putc>
   140004083:	44 01 63 0c          	add    %r12d,0xc(%rbx)
   140004087:	48 89 da             	mov    %rbx,%rdx
   14000408a:	48 89 e9             	mov    %rbp,%rcx
   14000408d:	81 4b 08 c0 01 00 00 	orl    $0x1c0,0x8(%rbx)
   140004094:	48 83 c4 58          	add    $0x58,%rsp
   140004098:	5b                   	pop    %rbx
   140004099:	5e                   	pop    %rsi
   14000409a:	5f                   	pop    %rdi
   14000409b:	5d                   	pop    %rbp
   14000409c:	41 5c                	pop    %r12
   14000409e:	41 5d                	pop    %r13
   1400040a0:	e9 8b ef ff ff       	jmp    140003030 <__pformat_int.isra.0>
   1400040a5:	0f 1f 00             	nopl   (%rax)
   1400040a8:	48 89 d9             	mov    %rbx,%rcx
   1400040ab:	e8 30 f3 ff ff       	call   1400033e0 <__pformat_emit_radix_point>
   1400040b0:	e9 3d fe ff ff       	jmp    140003ef2 <__pformat_emit_xfloat.isra.0+0x212>
   1400040b5:	0f 1f 00             	nopl   (%rax)
   1400040b8:	49 89 d8             	mov    %rbx,%r8
   1400040bb:	ba 01 00 00 00       	mov    $0x1,%edx
   1400040c0:	4c 89 e9             	mov    %r13,%rcx
   1400040c3:	e8 68 e6 ff ff       	call   140002730 <__pformat_wputchars>
   1400040c8:	e9 25 fe ff ff       	jmp    140003ef2 <__pformat_emit_xfloat.isra.0+0x212>
   1400040cd:	0f 1f 00             	nopl   (%rax)
   1400040d0:	4c 89 d6             	mov    %r10,%rsi
   1400040d3:	e9 8a fc ff ff       	jmp    140003d62 <__pformat_emit_xfloat.isra.0+0x82>
   1400040d8:	0f 1f 84 00 00 00 00 	nopl   0x0(%rax,%rax,1)
   1400040df:	00 
   1400040e0:	41 ba ff ff ff ff    	mov    $0xffffffff,%r10d
   1400040e6:	44 89 53 0c          	mov    %r10d,0xc(%rbx)
   1400040ea:	e9 75 fd ff ff       	jmp    140003e64 <__pformat_emit_xfloat.isra.0+0x184>
   1400040ef:	90                   	nop
   1400040f0:	48 89 da             	mov    %rbx,%rdx
   1400040f3:	b9 2b 00 00 00       	mov    $0x2b,%ecx
   1400040f8:	e8 d3 e5 ff ff       	call   1400026d0 <__pformat_putc>
   1400040fd:	e9 7d fd ff ff       	jmp    140003e7f <__pformat_emit_xfloat.isra.0+0x19f>
   140004102:	66 0f 1f 44 00 00    	nopw   0x0(%rax,%rax,1)
   140004108:	45 85 d2             	test   %r10d,%r10d
   14000410b:	7e 73                	jle    140004180 <__pformat_emit_xfloat.isra.0+0x4a0>
   14000410d:	31 ed                	xor    %ebp,%ebp
   14000410f:	45 31 c0             	xor    %r8d,%r8d
   140004112:	45 31 c9             	xor    %r9d,%r9d
   140004115:	ba 10 00 00 00       	mov    $0x10,%edx
   14000411a:	e9 05 fc ff ff       	jmp    140003d24 <__pformat_emit_xfloat.isra.0+0x44>
   14000411f:	90                   	nop
   140004120:	49 0f bf e8          	movswq %r8w,%rbp
   140004124:	e9 e9 fc ff ff       	jmp    140003e12 <__pformat_emit_xfloat.isra.0+0x132>
   140004129:	0f 1f 80 00 00 00 00 	nopl   0x0(%rax)
   140004130:	45 85 d2             	test   %r10d,%r10d
   140004133:	0f 8f eb fb ff ff    	jg     140003d24 <__pformat_emit_xfloat.isra.0+0x44>
   140004139:	e9 f2 fc ff ff       	jmp    140003e30 <__pformat_emit_xfloat.isra.0+0x150>
   14000413e:	66 90                	xchg   %ax,%ax
   140004140:	48 89 da             	mov    %rbx,%rdx
   140004143:	b9 20 00 00 00       	mov    $0x20,%ecx
   140004148:	e8 83 e5 ff ff       	call   1400026d0 <__pformat_putc>
   14000414d:	e9 2d fd ff ff       	jmp    140003e7f <__pformat_emit_xfloat.isra.0+0x19f>
   140004152:	66 0f 1f 44 00 00    	nopw   0x0(%rax,%rax,1)
   140004158:	85 c0                	test   %eax,%eax
   14000415a:	0f 84 ec fd ff ff    	je     140003f4c <__pformat_emit_xfloat.isra.0+0x26c>
   140004160:	49 89 f2             	mov    %rsi,%r10
   140004163:	e9 2e fc ff ff       	jmp    140003d96 <__pformat_emit_xfloat.isra.0+0xb6>
   140004168:	0f 1f 84 00 00 00 00 	nopl   0x0(%rax,%rax,1)
   14000416f:	00 
   140004170:	8b 43 10             	mov    0x10(%rbx),%eax
   140004173:	85 c0                	test   %eax,%eax
   140004175:	0f 8f c5 fc ff ff    	jg     140003e40 <__pformat_emit_xfloat.isra.0+0x160>
   14000417b:	e9 b8 fc ff ff       	jmp    140003e38 <__pformat_emit_xfloat.isra.0+0x158>
   140004180:	41 8b 48 08          	mov    0x8(%r8),%ecx
   140004184:	31 ed                	xor    %ebp,%ebp
   140004186:	45 31 c0             	xor    %r8d,%r8d
   140004189:	48 8d 7c 24 30       	lea    0x30(%rsp),%rdi
   14000418e:	e9 a5 fc ff ff       	jmp    140003e38 <__pformat_emit_xfloat.isra.0+0x158>
   140004193:	66 66 2e 0f 1f 84 00 	data16 cs nopw 0x0(%rax,%rax,1)
   14000419a:	00 00 00 00 
   14000419e:	66 90                	xchg   %ax,%ax

00000001400041a0 <__mingw_pformat>:
   1400041a0:	41 57                	push   %r15
   1400041a2:	41 56                	push   %r14
   1400041a4:	41 55                	push   %r13
   1400041a6:	41 54                	push   %r12
   1400041a8:	55                   	push   %rbp
   1400041a9:	57                   	push   %rdi
   1400041aa:	56                   	push   %rsi
   1400041ab:	53                   	push   %rbx
   1400041ac:	48 81 ec a8 00 00 00 	sub    $0xa8,%rsp
   1400041b3:	4c 8b ac 24 10 01 00 	mov    0x110(%rsp),%r13
   1400041ba:	00 
   1400041bb:	89 cf                	mov    %ecx,%edi
   1400041bd:	48 89 d5             	mov    %rdx,%rbp
   1400041c0:	44 89 c3             	mov    %r8d,%ebx
   1400041c3:	4c 89 ce             	mov    %r9,%rsi
   1400041c6:	e8 ad 39 00 00       	call   140007b78 <_errno>
   1400041cb:	0f be 0e             	movsbl (%rsi),%ecx
   1400041ce:	81 e7 00 60 00 00    	and    $0x6000,%edi
   1400041d4:	31 d2                	xor    %edx,%edx
   1400041d6:	8b 00                	mov    (%rax),%eax
   1400041d8:	89 9c 24 98 00 00 00 	mov    %ebx,0x98(%rsp)
   1400041df:	48 8d 5e 01          	lea    0x1(%rsi),%rbx
   1400041e3:	48 89 6c 24 70       	mov    %rbp,0x70(%rsp)
   1400041e8:	89 44 24 30          	mov    %eax,0x30(%rsp)
   1400041ec:	48 b8 ff ff ff ff fd 	movabs $0xfffffffdffffffff,%rax
   1400041f3:	ff ff ff 
   1400041f6:	48 89 84 24 80 00 00 	mov    %rax,0x80(%rsp)
   1400041fd:	00 
   1400041fe:	31 c0                	xor    %eax,%eax
   140004200:	66 89 84 24 88 00 00 	mov    %ax,0x88(%rsp)
   140004207:	00 
   140004208:	89 c8                	mov    %ecx,%eax
   14000420a:	89 7c 24 78          	mov    %edi,0x78(%rsp)
   14000420e:	c7 44 24 7c ff ff ff 	movl   $0xffffffff,0x7c(%rsp)
   140004215:	ff 
   140004216:	c7 84 24 8c 00 00 00 	movl   $0x0,0x8c(%rsp)
   14000421d:	00 00 00 00 
   140004221:	66 89 94 24 90 00 00 	mov    %dx,0x90(%rsp)
   140004228:	00 
   140004229:	c7 84 24 94 00 00 00 	movl   $0x0,0x94(%rsp)
   140004230:	00 00 00 00 
   140004234:	c7 84 24 9c 00 00 00 	movl   $0xffffffff,0x9c(%rsp)
   14000423b:	ff ff ff ff 
   14000423f:	85 c9                	test   %ecx,%ecx
   140004241:	0f 84 10 01 00 00    	je     140004357 <__mingw_pformat+0x1b7>
   140004247:	4c 8d 7c 24 7c       	lea    0x7c(%rsp),%r15
   14000424c:	4c 8d 25 1d 51 00 00 	lea    0x511d(%rip),%r12        # 140009370 <.rdata+0x20>
   140004253:	eb 49                	jmp    14000429e <__mingw_pformat+0xfe>
   140004255:	0f 1f 00             	nopl   (%rax)
   140004258:	8b 54 24 78          	mov    0x78(%rsp),%edx
   14000425c:	8b b4 24 94 00 00 00 	mov    0x94(%rsp),%esi
   140004263:	f6 c6 40             	test   $0x40,%dh
   140004266:	75 09                	jne    140004271 <__mingw_pformat+0xd1>
   140004268:	39 b4 24 98 00 00 00 	cmp    %esi,0x98(%rsp)
   14000426f:	7e 11                	jle    140004282 <__mingw_pformat+0xe2>
   140004271:	4c 8b 44 24 70       	mov    0x70(%rsp),%r8
   140004276:	80 e6 20             	and    $0x20,%dh
   140004279:	75 6d                	jne    1400042e8 <__mingw_pformat+0x148>
   14000427b:	48 63 d6             	movslq %esi,%rdx
   14000427e:	41 88 04 10          	mov    %al,(%r8,%rdx,1)
   140004282:	83 c6 01             	add    $0x1,%esi
   140004285:	89 b4 24 94 00 00 00 	mov    %esi,0x94(%rsp)
   14000428c:	0f b6 03             	movzbl (%rbx),%eax
   14000428f:	48 83 c3 01          	add    $0x1,%rbx
   140004293:	0f be c8             	movsbl %al,%ecx
   140004296:	85 c9                	test   %ecx,%ecx
   140004298:	0f 84 b2 00 00 00    	je     140004350 <__mingw_pformat+0x1b0>
   14000429e:	83 f9 25             	cmp    $0x25,%ecx
   1400042a1:	75 b5                	jne    140004258 <__mingw_pformat+0xb8>
   1400042a3:	0f b6 03             	movzbl (%rbx),%eax
   1400042a6:	89 7c 24 78          	mov    %edi,0x78(%rsp)
   1400042aa:	48 c7 44 24 7c ff ff 	movq   $0xffffffffffffffff,0x7c(%rsp)
   1400042b1:	ff ff 
   1400042b3:	84 c0                	test   %al,%al
   1400042b5:	0f 84 95 00 00 00    	je     140004350 <__mingw_pformat+0x1b0>
   1400042bb:	48 89 de             	mov    %rbx,%rsi
   1400042be:	4d 89 fb             	mov    %r15,%r11
   1400042c1:	45 31 d2             	xor    %r10d,%r10d
   1400042c4:	45 31 f6             	xor    %r14d,%r14d
   1400042c7:	8d 50 e0             	lea    -0x20(%rax),%edx
   1400042ca:	48 8d 6e 01          	lea    0x1(%rsi),%rbp
   1400042ce:	0f be c8             	movsbl %al,%ecx
   1400042d1:	80 fa 5a             	cmp    $0x5a,%dl
   1400042d4:	77 22                	ja     1400042f8 <__mingw_pformat+0x158>
   1400042d6:	0f b6 d2             	movzbl %dl,%edx
   1400042d9:	49 63 14 94          	movslq (%r12,%rdx,4),%rdx
   1400042dd:	4c 01 e2             	add    %r12,%rdx
   1400042e0:	ff e2                	jmp    *%rdx
   1400042e2:	66 0f 1f 44 00 00    	nopw   0x0(%rax,%rax,1)
   1400042e8:	4c 89 c2             	mov    %r8,%rdx
   1400042eb:	e8 d0 38 00 00       	call   140007bc0 <fputc>
   1400042f0:	eb 90                	jmp    140004282 <__mingw_pformat+0xe2>
   1400042f2:	66 0f 1f 44 00 00    	nopw   0x0(%rax,%rax,1)
   1400042f8:	83 e8 30             	sub    $0x30,%eax
   1400042fb:	3c 09                	cmp    $0x9,%al
   1400042fd:	0f 87 14 02 00 00    	ja     140004517 <__mingw_pformat+0x377>
   140004303:	41 83 fe 03          	cmp    $0x3,%r14d
   140004307:	0f 87 0a 02 00 00    	ja     140004517 <__mingw_pformat+0x377>
   14000430d:	45 85 f6             	test   %r14d,%r14d
   140004310:	0f 85 49 07 00 00    	jne    140004a5f <__mingw_pformat+0x8bf>
   140004316:	41 be 01 00 00 00    	mov    $0x1,%r14d
   14000431c:	4d 85 db             	test   %r11,%r11
   14000431f:	74 1f                	je     140004340 <__mingw_pformat+0x1a0>
   140004321:	41 8b 03             	mov    (%r11),%eax
   140004324:	85 c0                	test   %eax,%eax
   140004326:	0f 88 ec 07 00 00    	js     140004b18 <__mingw_pformat+0x978>
   14000432c:	8d 04 80             	lea    (%rax,%rax,4),%eax
   14000432f:	8d 44 41 d0          	lea    -0x30(%rcx,%rax,2),%eax
   140004333:	41 89 03             	mov    %eax,(%r11)
   140004336:	66 2e 0f 1f 84 00 00 	cs nopw 0x0(%rax,%rax,1)
   14000433d:	00 00 00 
   140004340:	0f b6 46 01          	movzbl 0x1(%rsi),%eax
   140004344:	48 89 ee             	mov    %rbp,%rsi
   140004347:	84 c0                	test   %al,%al
   140004349:	0f 85 78 ff ff ff    	jne    1400042c7 <__mingw_pformat+0x127>
   14000434f:	90                   	nop
   140004350:	8b 8c 24 94 00 00 00 	mov    0x94(%rsp),%ecx
   140004357:	89 c8                	mov    %ecx,%eax
   140004359:	48 81 c4 a8 00 00 00 	add    $0xa8,%rsp
   140004360:	5b                   	pop    %rbx
   140004361:	5e                   	pop    %rsi
   140004362:	5f                   	pop    %rdi
   140004363:	5d                   	pop    %rbp
   140004364:	41 5c                	pop    %r12
   140004366:	41 5d                	pop    %r13
   140004368:	41 5e                	pop    %r14
   14000436a:	41 5f                	pop    %r15
   14000436c:	c3                   	ret
   14000436d:	0f 1f 00             	nopl   (%rax)
   140004370:	81 64 24 78 ff fe ff 	andl   $0xfffffeff,0x78(%rsp)
   140004377:	ff 
   140004378:	41 83 fa 03          	cmp    $0x3,%r10d
   14000437c:	0f 84 d6 07 00 00    	je     140004b58 <__mingw_pformat+0x9b8>
   140004382:	41 83 fa 02          	cmp    $0x2,%r10d
   140004386:	0f 84 5f 08 00 00    	je     140004beb <__mingw_pformat+0xa4b>
   14000438c:	41 8b 45 00          	mov    0x0(%r13),%eax
   140004390:	41 83 fa 01          	cmp    $0x1,%r10d
   140004394:	0f 84 6e 07 00 00    	je     140004b08 <__mingw_pformat+0x968>
   14000439a:	89 c2                	mov    %eax,%edx
   14000439c:	41 83 fa 05          	cmp    $0x5,%r10d
   1400043a0:	0f b6 c0             	movzbl %al,%eax
   1400043a3:	48 0f 45 c2          	cmovne %rdx,%rax
   1400043a7:	48 89 44 24 60       	mov    %rax,0x60(%rsp)
   1400043ac:	83 f9 75             	cmp    $0x75,%ecx
   1400043af:	0f 84 24 08 00 00    	je     140004bd9 <__mingw_pformat+0xa39>
   1400043b5:	4c 8d 44 24 70       	lea    0x70(%rsp),%r8
   1400043ba:	48 89 c2             	mov    %rax,%rdx
   1400043bd:	e8 3e e7 ff ff       	call   140002b00 <__pformat_xint.isra.0>
   1400043c2:	e9 a9 02 00 00       	jmp    140004670 <__mingw_pformat+0x4d0>
   1400043c7:	66 0f 1f 84 00 00 00 	nopw   0x0(%rax,%rax,1)
   1400043ce:	00 00 
   1400043d0:	0f b6 46 01          	movzbl 0x1(%rsi),%eax
   1400043d4:	41 ba 03 00 00 00    	mov    $0x3,%r10d
   1400043da:	48 89 ee             	mov    %rbp,%rsi
   1400043dd:	41 be 04 00 00 00    	mov    $0x4,%r14d
   1400043e3:	e9 5f ff ff ff       	jmp    140004347 <__mingw_pformat+0x1a7>
   1400043e8:	81 4c 24 78 80 00 00 	orl    $0x80,0x78(%rsp)
   1400043ef:	00 
   1400043f0:	49 8d 5d 08          	lea    0x8(%r13),%rbx
   1400043f4:	41 83 fa 03          	cmp    $0x3,%r10d
   1400043f8:	0f 84 51 07 00 00    	je     140004b4f <__mingw_pformat+0x9af>
   1400043fe:	49 63 4d 00          	movslq 0x0(%r13),%rcx
   140004402:	41 83 fa 02          	cmp    $0x2,%r10d
   140004406:	74 16                	je     14000441e <__mingw_pformat+0x27e>
   140004408:	41 83 fa 01          	cmp    $0x1,%r10d
   14000440c:	0f 84 ed 06 00 00    	je     140004aff <__mingw_pformat+0x95f>
   140004412:	48 0f be c1          	movsbq %cl,%rax
   140004416:	41 83 fa 05          	cmp    $0x5,%r10d
   14000441a:	48 0f 44 c8          	cmove  %rax,%rcx
   14000441e:	48 8d 54 24 70       	lea    0x70(%rsp),%rdx
   140004423:	49 89 dd             	mov    %rbx,%r13
   140004426:	48 89 eb             	mov    %rbp,%rbx
   140004429:	e8 02 ec ff ff       	call   140003030 <__pformat_int.isra.0>
   14000442e:	e9 59 fe ff ff       	jmp    14000428c <__mingw_pformat+0xec>
   140004433:	45 85 f6             	test   %r14d,%r14d
   140004436:	75 0a                	jne    140004442 <__mingw_pformat+0x2a2>
   140004438:	39 7c 24 78          	cmp    %edi,0x78(%rsp)
   14000443c:	0f 84 8b 06 00 00    	je     140004acd <__mingw_pformat+0x92d>
   140004442:	49 8b 55 00          	mov    0x0(%r13),%rdx
   140004446:	49 8d 5d 08          	lea    0x8(%r13),%rbx
   14000444a:	4c 8d 44 24 70       	lea    0x70(%rsp),%r8
   14000444f:	b9 78 00 00 00       	mov    $0x78,%ecx
   140004454:	49 89 dd             	mov    %rbx,%r13
   140004457:	48 89 eb             	mov    %rbp,%rbx
   14000445a:	e8 a1 e6 ff ff       	call   140002b00 <__pformat_xint.isra.0>
   14000445f:	e9 28 fe ff ff       	jmp    14000428c <__mingw_pformat+0xec>
   140004464:	0f b6 46 01          	movzbl 0x1(%rsi),%eax
   140004468:	3c 68                	cmp    $0x68,%al
   14000446a:	0f 84 37 07 00 00    	je     140004ba7 <__mingw_pformat+0xa07>
   140004470:	48 89 ee             	mov    %rbp,%rsi
   140004473:	41 ba 01 00 00 00    	mov    $0x1,%r10d
   140004479:	41 be 04 00 00 00    	mov    $0x4,%r14d
   14000447f:	e9 c3 fe ff ff       	jmp    140004347 <__mingw_pformat+0x1a7>
   140004484:	8b 4c 24 30          	mov    0x30(%rsp),%ecx
   140004488:	48 89 eb             	mov    %rbp,%rbx
   14000448b:	e8 70 37 00 00       	call   140007c00 <strerror>
   140004490:	48 8d 54 24 70       	lea    0x70(%rsp),%rdx
   140004495:	48 89 c1             	mov    %rax,%rcx
   140004498:	e8 73 e5 ff ff       	call   140002a10 <__pformat_puts>
   14000449d:	e9 ea fd ff ff       	jmp    14000428c <__mingw_pformat+0xec>
   1400044a2:	49 8b 55 00          	mov    0x0(%r13),%rdx
   1400044a6:	48 63 84 24 94 00 00 	movslq 0x94(%rsp),%rax
   1400044ad:	00 
   1400044ae:	41 83 fa 05          	cmp    $0x5,%r10d
   1400044b2:	0f 84 e8 06 00 00    	je     140004ba0 <__mingw_pformat+0xa00>
   1400044b8:	41 83 fa 01          	cmp    $0x1,%r10d
   1400044bc:	0f 84 32 07 00 00    	je     140004bf4 <__mingw_pformat+0xa54>
   1400044c2:	41 83 fa 02          	cmp    $0x2,%r10d
   1400044c6:	74 0a                	je     1400044d2 <__mingw_pformat+0x332>
   1400044c8:	41 83 fa 03          	cmp    $0x3,%r10d
   1400044cc:	0f 84 3e 06 00 00    	je     140004b10 <__mingw_pformat+0x970>
   1400044d2:	89 02                	mov    %eax,(%rdx)
   1400044d4:	e9 97 01 00 00       	jmp    140004670 <__mingw_pformat+0x4d0>
   1400044d9:	0f b6 46 01          	movzbl 0x1(%rsi),%eax
   1400044dd:	3c 6c                	cmp    $0x6c,%al
   1400044df:	0f 84 db 06 00 00    	je     140004bc0 <__mingw_pformat+0xa20>
   1400044e5:	48 89 ee             	mov    %rbp,%rsi
   1400044e8:	41 ba 02 00 00 00    	mov    $0x2,%r10d
   1400044ee:	41 be 04 00 00 00    	mov    $0x4,%r14d
   1400044f4:	e9 4e fe ff ff       	jmp    140004347 <__mingw_pformat+0x1a7>
   1400044f9:	0f b6 46 01          	movzbl 0x1(%rsi),%eax
   1400044fd:	3c 36                	cmp    $0x36,%al
   1400044ff:	0f 84 78 06 00 00    	je     140004b7d <__mingw_pformat+0x9dd>
   140004505:	3c 33                	cmp    $0x33,%al
   140004507:	0f 85 a1 05 00 00    	jne    140004aae <__mingw_pformat+0x90e>
   14000450d:	80 7e 02 32          	cmpb   $0x32,0x2(%rsi)
   140004511:	0f 84 fb 06 00 00    	je     140004c12 <__mingw_pformat+0xa72>
   140004517:	48 8d 54 24 70       	lea    0x70(%rsp),%rdx
   14000451c:	b9 25 00 00 00       	mov    $0x25,%ecx
   140004521:	e8 aa e1 ff ff       	call   1400026d0 <__pformat_putc>
   140004526:	e9 61 fd ff ff       	jmp    14000428c <__mingw_pformat+0xec>
   14000452b:	0f 1f 44 00 00       	nopl   0x0(%rax,%rax,1)
   140004530:	0f b6 46 01          	movzbl 0x1(%rsi),%eax
   140004534:	83 4c 24 78 04       	orl    $0x4,0x78(%rsp)
   140004539:	48 89 ee             	mov    %rbp,%rsi
   14000453c:	41 be 04 00 00 00    	mov    $0x4,%r14d
   140004542:	e9 00 fe ff ff       	jmp    140004347 <__mingw_pformat+0x1a7>
   140004547:	8b 44 24 78          	mov    0x78(%rsp),%eax
   14000454b:	49 8b 4d 00          	mov    0x0(%r13),%rcx
   14000454f:	83 c8 20             	or     $0x20,%eax
   140004552:	89 44 24 78          	mov    %eax,0x78(%rsp)
   140004556:	a8 04                	test   $0x4,%al
   140004558:	0f 84 fa 01 00 00    	je     140004758 <__mingw_pformat+0x5b8>
   14000455e:	8b 59 08             	mov    0x8(%rcx),%ebx
   140004561:	48 8b 09             	mov    (%rcx),%rcx
   140004564:	49 89 c9             	mov    %rcx,%r9
   140004567:	44 0f bf d3          	movswl %bx,%r10d
   14000456b:	48 89 da             	mov    %rbx,%rdx
   14000456e:	49 c1 e9 20          	shr    $0x20,%r9
   140004572:	47 8d 1c 12          	lea    (%r10,%r10,1),%r11d
   140004576:	41 81 e1 ff ff ff 7f 	and    $0x7fffffff,%r9d
   14000457d:	45 0f b7 db          	movzwl %r11w,%r11d
   140004581:	41 09 c9             	or     %ecx,%r9d
   140004584:	45 89 c8             	mov    %r9d,%r8d
   140004587:	41 f7 d8             	neg    %r8d
   14000458a:	45 09 c8             	or     %r9d,%r8d
   14000458d:	41 c1 e8 1f          	shr    $0x1f,%r8d
   140004591:	45 09 d8             	or     %r11d,%r8d
   140004594:	41 bb fe ff 00 00    	mov    $0xfffe,%r11d
   14000459a:	45 29 c3             	sub    %r8d,%r11d
   14000459d:	41 c1 eb 10          	shr    $0x10,%r11d
   1400045a1:	0f 85 ca 04 00 00    	jne    140004a71 <__mingw_pformat+0x8d1>
   1400045a7:	66 85 db             	test   %bx,%bx
   1400045aa:	0f 88 12 05 00 00    	js     140004ac2 <__mingw_pformat+0x922>
   1400045b0:	66 81 e2 ff 7f       	and    $0x7fff,%dx
   1400045b5:	0f 84 e3 04 00 00    	je     140004a9e <__mingw_pformat+0x8fe>
   1400045bb:	66 81 fa ff 7f       	cmp    $0x7fff,%dx
   1400045c0:	75 09                	jne    1400045cb <__mingw_pformat+0x42b>
   1400045c2:	45 85 c9             	test   %r9d,%r9d
   1400045c5:	0f 84 83 06 00 00    	je     140004c4e <__mingw_pformat+0xaae>
   1400045cb:	66 81 ea ff 3f       	sub    $0x3fff,%dx
   1400045d0:	e9 22 04 00 00       	jmp    1400049f7 <__mingw_pformat+0x857>
   1400045d5:	41 83 ea 02          	sub    $0x2,%r10d
   1400045d9:	41 8b 45 00          	mov    0x0(%r13),%eax
   1400045dd:	49 8d 5d 08          	lea    0x8(%r13),%rbx
   1400045e1:	c7 84 24 80 00 00 00 	movl   $0xffffffff,0x80(%rsp)
   1400045e8:	ff ff ff ff 
   1400045ec:	41 83 fa 01          	cmp    $0x1,%r10d
   1400045f0:	0f 86 09 02 00 00    	jbe    1400047ff <__mingw_pformat+0x65f>
   1400045f6:	48 8d 4c 24 60       	lea    0x60(%rsp),%rcx
   1400045fb:	4c 8d 44 24 70       	lea    0x70(%rsp),%r8
   140004600:	88 44 24 60          	mov    %al,0x60(%rsp)
   140004604:	49 89 dd             	mov    %rbx,%r13
   140004607:	ba 01 00 00 00       	mov    $0x1,%edx
   14000460c:	48 89 eb             	mov    %rbp,%rbx
   14000460f:	e8 ac e2 ff ff       	call   1400028c0 <__pformat_putchars>
   140004614:	e9 73 fc ff ff       	jmp    14000428c <__mingw_pformat+0xec>
   140004619:	41 83 ea 02          	sub    $0x2,%r10d
   14000461d:	49 8b 4d 00          	mov    0x0(%r13),%rcx
   140004621:	49 8d 5d 08          	lea    0x8(%r13),%rbx
   140004625:	41 83 fa 01          	cmp    $0x1,%r10d
   140004629:	0f 86 db 03 00 00    	jbe    140004a0a <__mingw_pformat+0x86a>
   14000462f:	48 8d 54 24 70       	lea    0x70(%rsp),%rdx
   140004634:	49 89 dd             	mov    %rbx,%r13
   140004637:	48 89 eb             	mov    %rbp,%rbx
   14000463a:	e8 d1 e3 ff ff       	call   140002a10 <__pformat_puts>
   14000463f:	e9 48 fc ff ff       	jmp    14000428c <__mingw_pformat+0xec>
   140004644:	8b 44 24 78          	mov    0x78(%rsp),%eax
   140004648:	49 8b 55 00          	mov    0x0(%r13),%rdx
   14000464c:	83 c8 20             	or     $0x20,%eax
   14000464f:	89 44 24 78          	mov    %eax,0x78(%rsp)
   140004653:	a8 04                	test   $0x4,%al
   140004655:	0f 84 3e 02 00 00    	je     140004899 <__mingw_pformat+0x6f9>
   14000465b:	db 2a                	fldt   (%rdx)
   14000465d:	48 8d 4c 24 40       	lea    0x40(%rsp),%rcx
   140004662:	48 8d 54 24 70       	lea    0x70(%rsp),%rdx
   140004667:	db 7c 24 40          	fstpt  0x40(%rsp)
   14000466b:	e8 f0 f4 ff ff       	call   140003b60 <__pformat_gfloat>
   140004670:	49 83 c5 08          	add    $0x8,%r13
   140004674:	48 89 eb             	mov    %rbp,%rbx
   140004677:	e9 10 fc ff ff       	jmp    14000428c <__mingw_pformat+0xec>
   14000467c:	8b 44 24 78          	mov    0x78(%rsp),%eax
   140004680:	49 8b 55 00          	mov    0x0(%r13),%rdx
   140004684:	83 c8 20             	or     $0x20,%eax
   140004687:	89 44 24 78          	mov    %eax,0x78(%rsp)
   14000468b:	a8 04                	test   $0x4,%al
   14000468d:	0f 84 d5 01 00 00    	je     140004868 <__mingw_pformat+0x6c8>
   140004693:	db 2a                	fldt   (%rdx)
   140004695:	48 8d 4c 24 40       	lea    0x40(%rsp),%rcx
   14000469a:	48 8d 54 24 70       	lea    0x70(%rsp),%rdx
   14000469f:	db 7c 24 40          	fstpt  0x40(%rsp)
   1400046a3:	e8 d8 f3 ff ff       	call   140003a80 <__pformat_float>
   1400046a8:	eb c6                	jmp    140004670 <__mingw_pformat+0x4d0>
   1400046aa:	8b 44 24 78          	mov    0x78(%rsp),%eax
   1400046ae:	49 8b 55 00          	mov    0x0(%r13),%rdx
   1400046b2:	83 c8 20             	or     $0x20,%eax
   1400046b5:	89 44 24 78          	mov    %eax,0x78(%rsp)
   1400046b9:	a8 04                	test   $0x4,%al
   1400046bb:	0f 84 76 01 00 00    	je     140004837 <__mingw_pformat+0x697>
   1400046c1:	db 2a                	fldt   (%rdx)
   1400046c3:	48 8d 4c 24 40       	lea    0x40(%rsp),%rcx
   1400046c8:	48 8d 54 24 70       	lea    0x70(%rsp),%rdx
   1400046cd:	db 7c 24 40          	fstpt  0x40(%rsp)
   1400046d1:	e8 0a f3 ff ff       	call   1400039e0 <__pformat_efloat>
   1400046d6:	eb 98                	jmp    140004670 <__mingw_pformat+0x4d0>
   1400046d8:	45 85 f6             	test   %r14d,%r14d
   1400046db:	0f 85 5f fc ff ff    	jne    140004340 <__mingw_pformat+0x1a0>
   1400046e1:	0f b6 46 01          	movzbl 0x1(%rsi),%eax
   1400046e5:	83 4c 24 78 40       	orl    $0x40,0x78(%rsp)
   1400046ea:	48 89 ee             	mov    %rbp,%rsi
   1400046ed:	e9 55 fc ff ff       	jmp    140004347 <__mingw_pformat+0x1a7>
   1400046f2:	45 85 f6             	test   %r14d,%r14d
   1400046f5:	0f 85 45 fc ff ff    	jne    140004340 <__mingw_pformat+0x1a0>
   1400046fb:	0f b6 46 01          	movzbl 0x1(%rsi),%eax
   1400046ff:	81 4c 24 78 00 04 00 	orl    $0x400,0x78(%rsp)
   140004706:	00 
   140004707:	48 89 ee             	mov    %rbp,%rsi
   14000470a:	e9 38 fc ff ff       	jmp    140004347 <__mingw_pformat+0x1a7>
   14000470f:	41 83 fe 01          	cmp    $0x1,%r14d
   140004713:	0f 86 11 04 00 00    	jbe    140004b2a <__mingw_pformat+0x98a>
   140004719:	0f b6 46 01          	movzbl 0x1(%rsi),%eax
   14000471d:	41 be 04 00 00 00    	mov    $0x4,%r14d
   140004723:	48 89 ee             	mov    %rbp,%rsi
   140004726:	e9 1c fc ff ff       	jmp    140004347 <__mingw_pformat+0x1a7>
   14000472b:	45 85 f6             	test   %r14d,%r14d
   14000472e:	0f 85 1c 03 00 00    	jne    140004a50 <__mingw_pformat+0x8b0>
   140004734:	0f b6 46 01          	movzbl 0x1(%rsi),%eax
   140004738:	81 4c 24 78 00 02 00 	orl    $0x200,0x78(%rsp)
   14000473f:	00 
   140004740:	48 89 ee             	mov    %rbp,%rsi
   140004743:	e9 ff fb ff ff       	jmp    140004347 <__mingw_pformat+0x1a7>
   140004748:	8b 44 24 78          	mov    0x78(%rsp),%eax
   14000474c:	49 8b 4d 00          	mov    0x0(%r13),%rcx
   140004750:	a8 04                	test   $0x4,%al
   140004752:	0f 85 06 fe ff ff    	jne    14000455e <__mingw_pformat+0x3be>
   140004758:	49 89 c8             	mov    %rcx,%r8
   14000475b:	89 ca                	mov    %ecx,%edx
   14000475d:	49 c1 e8 20          	shr    $0x20,%r8
   140004761:	f7 da                	neg    %edx
   140004763:	45 89 c1             	mov    %r8d,%r9d
   140004766:	09 ca                	or     %ecx,%edx
   140004768:	41 81 e1 ff ff ff 7f 	and    $0x7fffffff,%r9d
   14000476f:	c1 ea 1f             	shr    $0x1f,%edx
   140004772:	44 09 ca             	or     %r9d,%edx
   140004775:	41 b9 00 00 f0 7f    	mov    $0x7ff00000,%r9d
   14000477b:	41 39 d1             	cmp    %edx,%r9d
   14000477e:	0f 88 ed 02 00 00    	js     140004a71 <__mingw_pformat+0x8d1>
   140004784:	48 89 4c 24 20       	mov    %rcx,0x20(%rsp)
   140004789:	dd 44 24 20          	fldl   0x20(%rsp)
   14000478d:	db 7c 24 20          	fstpt  0x20(%rsp)
   140004791:	48 8b 54 24 28       	mov    0x28(%rsp),%rdx
   140004796:	66 85 d2             	test   %dx,%dx
   140004799:	79 06                	jns    1400047a1 <__mingw_pformat+0x601>
   14000479b:	0c 80                	or     $0x80,%al
   14000479d:	89 44 24 78          	mov    %eax,0x78(%rsp)
   1400047a1:	44 89 c0             	mov    %r8d,%eax
   1400047a4:	41 81 e0 00 00 f0 7f 	and    $0x7ff00000,%r8d
   1400047ab:	25 ff ff 0f 00       	and    $0xfffff,%eax
   1400047b0:	41 81 f8 00 00 f0 7f 	cmp    $0x7ff00000,%r8d
   1400047b7:	41 0f 95 c1          	setne  %r9b
   1400047bb:	09 c8                	or     %ecx,%eax
   1400047bd:	0f 95 c1             	setne  %cl
   1400047c0:	41 08 c9             	or     %cl,%r9b
   1400047c3:	0f 85 f6 01 00 00    	jne    1400049bf <__mingw_pformat+0x81f>
   1400047c9:	44 09 c0             	or     %r8d,%eax
   1400047cc:	0f 84 ed 01 00 00    	je     1400049bf <__mingw_pformat+0x81f>
   1400047d2:	89 d1                	mov    %edx,%ecx
   1400047d4:	4c 8d 44 24 70       	lea    0x70(%rsp),%r8
   1400047d9:	48 8d 15 8a 4b 00 00 	lea    0x4b8a(%rip),%rdx        # 14000936a <.rdata+0x1a>
   1400047e0:	81 e1 00 80 00 00    	and    $0x8000,%ecx
   1400047e6:	e8 75 e2 ff ff       	call   140002a60 <__pformat_emit_inf_or_nan>
   1400047eb:	e9 80 fe ff ff       	jmp    140004670 <__mingw_pformat+0x4d0>
   1400047f0:	c7 84 24 80 00 00 00 	movl   $0xffffffff,0x80(%rsp)
   1400047f7:	ff ff ff ff 
   1400047fb:	49 8d 5d 08          	lea    0x8(%r13),%rbx
   1400047ff:	41 8b 45 00          	mov    0x0(%r13),%eax
   140004803:	48 8d 4c 24 60       	lea    0x60(%rsp),%rcx
   140004808:	4c 8d 44 24 70       	lea    0x70(%rsp),%r8
   14000480d:	49 89 dd             	mov    %rbx,%r13
   140004810:	ba 01 00 00 00       	mov    $0x1,%edx
   140004815:	48 89 eb             	mov    %rbp,%rbx
   140004818:	66 89 44 24 60       	mov    %ax,0x60(%rsp)
   14000481d:	e8 0e df ff ff       	call   140002730 <__pformat_wputchars>
   140004822:	e9 65 fa ff ff       	jmp    14000428c <__mingw_pformat+0xec>
   140004827:	8b 44 24 78          	mov    0x78(%rsp),%eax
   14000482b:	49 8b 55 00          	mov    0x0(%r13),%rdx
   14000482f:	a8 04                	test   $0x4,%al
   140004831:	0f 85 8a fe ff ff    	jne    1400046c1 <__mingw_pformat+0x521>
   140004837:	48 89 54 24 20       	mov    %rdx,0x20(%rsp)
   14000483c:	dd 44 24 20          	fldl   0x20(%rsp)
   140004840:	48 8d 54 24 70       	lea    0x70(%rsp),%rdx
   140004845:	48 8d 4c 24 40       	lea    0x40(%rsp),%rcx
   14000484a:	db 7c 24 40          	fstpt  0x40(%rsp)
   14000484e:	e8 8d f1 ff ff       	call   1400039e0 <__pformat_efloat>
   140004853:	e9 18 fe ff ff       	jmp    140004670 <__mingw_pformat+0x4d0>
   140004858:	8b 44 24 78          	mov    0x78(%rsp),%eax
   14000485c:	49 8b 55 00          	mov    0x0(%r13),%rdx
   140004860:	a8 04                	test   $0x4,%al
   140004862:	0f 85 2b fe ff ff    	jne    140004693 <__mingw_pformat+0x4f3>
   140004868:	48 89 54 24 20       	mov    %rdx,0x20(%rsp)
   14000486d:	dd 44 24 20          	fldl   0x20(%rsp)
   140004871:	48 8d 54 24 70       	lea    0x70(%rsp),%rdx
   140004876:	48 8d 4c 24 40       	lea    0x40(%rsp),%rcx
   14000487b:	db 7c 24 40          	fstpt  0x40(%rsp)
   14000487f:	e8 fc f1 ff ff       	call   140003a80 <__pformat_float>
   140004884:	e9 e7 fd ff ff       	jmp    140004670 <__mingw_pformat+0x4d0>
   140004889:	8b 44 24 78          	mov    0x78(%rsp),%eax
   14000488d:	49 8b 55 00          	mov    0x0(%r13),%rdx
   140004891:	a8 04                	test   $0x4,%al
   140004893:	0f 85 c2 fd ff ff    	jne    14000465b <__mingw_pformat+0x4bb>
   140004899:	48 89 54 24 20       	mov    %rdx,0x20(%rsp)
   14000489e:	dd 44 24 20          	fldl   0x20(%rsp)
   1400048a2:	48 8d 54 24 70       	lea    0x70(%rsp),%rdx
   1400048a7:	48 8d 4c 24 40       	lea    0x40(%rsp),%rcx
   1400048ac:	db 7c 24 40          	fstpt  0x40(%rsp)
   1400048b0:	e8 ab f2 ff ff       	call   140003b60 <__pformat_gfloat>
   1400048b5:	e9 b6 fd ff ff       	jmp    140004670 <__mingw_pformat+0x4d0>
   1400048ba:	48 8d 54 24 70       	lea    0x70(%rsp),%rdx
   1400048bf:	b9 25 00 00 00       	mov    $0x25,%ecx
   1400048c4:	48 89 eb             	mov    %rbp,%rbx
   1400048c7:	e8 04 de ff ff       	call   1400026d0 <__pformat_putc>
   1400048cc:	e9 bb f9 ff ff       	jmp    14000428c <__mingw_pformat+0xec>
   1400048d1:	45 85 f6             	test   %r14d,%r14d
   1400048d4:	0f 85 66 fa ff ff    	jne    140004340 <__mingw_pformat+0x1a0>
   1400048da:	4c 8d 4c 24 60       	lea    0x60(%rsp),%r9
   1400048df:	4c 89 5c 24 38       	mov    %r11,0x38(%rsp)
   1400048e4:	44 89 54 24 34       	mov    %r10d,0x34(%rsp)
   1400048e9:	81 4c 24 78 00 10 00 	orl    $0x1000,0x78(%rsp)
   1400048f0:	00 
   1400048f1:	4c 89 4c 24 20       	mov    %r9,0x20(%rsp)
   1400048f6:	c7 44 24 60 00 00 00 	movl   $0x0,0x60(%rsp)
   1400048fd:	00 
   1400048fe:	e8 d5 32 00 00       	call   140007bd8 <localeconv>
   140004903:	4c 8b 4c 24 20       	mov    0x20(%rsp),%r9
   140004908:	48 8d 4c 24 5e       	lea    0x5e(%rsp),%rcx
   14000490d:	41 b8 10 00 00 00    	mov    $0x10,%r8d
   140004913:	48 8b 50 08          	mov    0x8(%rax),%rdx
   140004917:	e8 34 30 00 00       	call   140007950 <mbrtowc>
   14000491c:	44 8b 54 24 34       	mov    0x34(%rsp),%r10d
   140004921:	4c 8b 5c 24 38       	mov    0x38(%rsp),%r11
   140004926:	85 c0                	test   %eax,%eax
   140004928:	7e 0d                	jle    140004937 <__mingw_pformat+0x797>
   14000492a:	0f b7 54 24 5e       	movzwl 0x5e(%rsp),%edx
   14000492f:	66 89 94 24 90 00 00 	mov    %dx,0x90(%rsp)
   140004936:	00 
   140004937:	89 84 24 8c 00 00 00 	mov    %eax,0x8c(%rsp)
   14000493e:	0f b6 46 01          	movzbl 0x1(%rsi),%eax
   140004942:	48 89 ee             	mov    %rbp,%rsi
   140004945:	e9 fd f9 ff ff       	jmp    140004347 <__mingw_pformat+0x1a7>
   14000494a:	4d 85 db             	test   %r11,%r11
   14000494d:	0f 84 c6 fd ff ff    	je     140004719 <__mingw_pformat+0x579>
   140004953:	41 f7 c6 fd ff ff ff 	test   $0xfffffffd,%r14d
   14000495a:	0f 85 29 01 00 00    	jne    140004a89 <__mingw_pformat+0x8e9>
   140004960:	41 8b 45 00          	mov    0x0(%r13),%eax
   140004964:	49 8d 55 08          	lea    0x8(%r13),%rdx
   140004968:	41 89 03             	mov    %eax,(%r11)
   14000496b:	85 c0                	test   %eax,%eax
   14000496d:	0f 88 89 02 00 00    	js     140004bfc <__mingw_pformat+0xa5c>
   140004973:	0f b6 46 01          	movzbl 0x1(%rsi),%eax
   140004977:	49 89 d5             	mov    %rdx,%r13
   14000497a:	48 89 ee             	mov    %rbp,%rsi
   14000497d:	45 31 db             	xor    %r11d,%r11d
   140004980:	e9 c2 f9 ff ff       	jmp    140004347 <__mingw_pformat+0x1a7>
   140004985:	45 85 f6             	test   %r14d,%r14d
   140004988:	0f 85 b2 f9 ff ff    	jne    140004340 <__mingw_pformat+0x1a0>
   14000498e:	0f b6 46 01          	movzbl 0x1(%rsi),%eax
   140004992:	81 4c 24 78 00 01 00 	orl    $0x100,0x78(%rsp)
   140004999:	00 
   14000499a:	48 89 ee             	mov    %rbp,%rsi
   14000499d:	e9 a5 f9 ff ff       	jmp    140004347 <__mingw_pformat+0x1a7>
   1400049a2:	45 85 f6             	test   %r14d,%r14d
   1400049a5:	0f 85 95 f9 ff ff    	jne    140004340 <__mingw_pformat+0x1a0>
   1400049ab:	0f b6 46 01          	movzbl 0x1(%rsi),%eax
   1400049af:	81 4c 24 78 00 08 00 	orl    $0x800,0x78(%rsp)
   1400049b6:	00 
   1400049b7:	48 89 ee             	mov    %rbp,%rsi
   1400049ba:	e9 88 f9 ff ff       	jmp    140004347 <__mingw_pformat+0x1a7>
   1400049bf:	48 8b 44 24 20       	mov    0x20(%rsp),%rax
   1400049c4:	66 81 e2 ff 7f       	and    $0x7fff,%dx
   1400049c9:	0f 84 20 01 00 00    	je     140004aef <__mingw_pformat+0x94f>
   1400049cf:	66 81 fa 00 3c       	cmp    $0x3c00,%dx
   1400049d4:	0f 8f 0c 01 00 00    	jg     140004ae6 <__mingw_pformat+0x946>
   1400049da:	44 0f bf c2          	movswl %dx,%r8d
   1400049de:	b9 01 3c 00 00       	mov    $0x3c01,%ecx
   1400049e3:	44 29 c1             	sub    %r8d,%ecx
   1400049e6:	48 d3 e8             	shr    %cl,%rax
   1400049e9:	01 ca                	add    %ecx,%edx
   1400049eb:	66 81 ea fc 3f       	sub    $0x3ffc,%dx
   1400049f0:	48 c1 e8 03          	shr    $0x3,%rax
   1400049f4:	48 89 c1             	mov    %rax,%rcx
   1400049f7:	4c 8d 44 24 70       	lea    0x70(%rsp),%r8
   1400049fc:	e8 df f2 ff ff       	call   140003ce0 <__pformat_emit_xfloat.isra.0>
   140004a01:	e9 6a fc ff ff       	jmp    140004670 <__mingw_pformat+0x4d0>
   140004a06:	49 8d 5d 08          	lea    0x8(%r13),%rbx
   140004a0a:	49 8b 75 00          	mov    0x0(%r13),%rsi
   140004a0e:	48 8d 05 43 49 00 00 	lea    0x4943(%rip),%rax        # 140009358 <.rdata+0x8>
   140004a15:	48 85 f6             	test   %rsi,%rsi
   140004a18:	48 0f 44 f0          	cmove  %rax,%rsi
   140004a1c:	8b 84 24 80 00 00 00 	mov    0x80(%rsp),%eax
   140004a23:	85 c0                	test   %eax,%eax
   140004a25:	0f 88 36 01 00 00    	js     140004b61 <__mingw_pformat+0x9c1>
   140004a2b:	48 63 d0             	movslq %eax,%rdx
   140004a2e:	48 89 f1             	mov    %rsi,%rcx
   140004a31:	e8 8a 2a 00 00       	call   1400074c0 <wcsnlen>
   140004a36:	4c 8d 44 24 70       	lea    0x70(%rsp),%r8
   140004a3b:	48 89 f1             	mov    %rsi,%rcx
   140004a3e:	89 c2                	mov    %eax,%edx
