   1              		.file	"index.c"
   2              	 # GNU C17 (Rev7, Built by MSYS2 project) version 13.1.0 (x86_64-w64-mingw32)
   3              	 #	compiled by GNU C version 13.1.0, GMP version 6.2.1, MPFR version 4.2.0-p9, MPC version 1.3.1, i
   4              	
   5              	 # GGC heuristics: --param ggc-min-expand=100 --param ggc-min-heapsize=131072
   6              	 # options passed: -mtune=generic -march=nocona -g -O0
   7              		.text
   8              	.Ltext0:
   9              		.cfi_sections	.debug_frame
  10              		.file 0 "C:/Users/Kyouma/reyuki/explore-c" "index.c"
  12              		.seh_proc	printf
  13              	printf:
  14              	.LFB9:
  15              		.file 1 "C:/msys64/mingw64/include/stdio.h"
   1:C:/msys64/mingw64/include\stdio.h **** /**
   2:C:/msys64/mingw64/include\stdio.h ****  * This file has no copyright assigned and is placed in the Public Domain.
   3:C:/msys64/mingw64/include\stdio.h ****  * This file is part of the mingw-w64 runtime package.
   4:C:/msys64/mingw64/include\stdio.h ****  * No warranty is given; refer to the file DISCLAIMER.PD within this package.
   5:C:/msys64/mingw64/include\stdio.h ****  */
   6:C:/msys64/mingw64/include\stdio.h **** #ifndef _INC_STDIO
   7:C:/msys64/mingw64/include\stdio.h **** #define _INC_STDIO
   8:C:/msys64/mingw64/include\stdio.h **** 
   9:C:/msys64/mingw64/include\stdio.h **** #include <corecrt_stdio_config.h>
  10:C:/msys64/mingw64/include\stdio.h **** 
  11:C:/msys64/mingw64/include\stdio.h **** #pragma pack(push,_CRT_PACKING)
  12:C:/msys64/mingw64/include\stdio.h **** 
  13:C:/msys64/mingw64/include\stdio.h **** #pragma push_macro("snprintf")
  14:C:/msys64/mingw64/include\stdio.h **** #undef snprintf
  15:C:/msys64/mingw64/include\stdio.h **** #pragma push_macro("vsnprintf")
  16:C:/msys64/mingw64/include\stdio.h **** #undef vsnprintf
  17:C:/msys64/mingw64/include\stdio.h **** #pragma push_macro("snwprintf")
  18:C:/msys64/mingw64/include\stdio.h **** #undef snwprintf
  19:C:/msys64/mingw64/include\stdio.h **** #pragma push_macro("vsnwprintf")
  20:C:/msys64/mingw64/include\stdio.h **** #undef vsnwprintf
  21:C:/msys64/mingw64/include\stdio.h **** 
  22:C:/msys64/mingw64/include\stdio.h **** #ifdef __cplusplus
  23:C:/msys64/mingw64/include\stdio.h **** extern "C" {
  24:C:/msys64/mingw64/include\stdio.h **** #endif
  25:C:/msys64/mingw64/include\stdio.h **** 
  26:C:/msys64/mingw64/include\stdio.h **** #define BUFSIZ 512
  27:C:/msys64/mingw64/include\stdio.h **** #define _NFILE _NSTREAM_
  28:C:/msys64/mingw64/include\stdio.h **** #define _NSTREAM_ 512
  29:C:/msys64/mingw64/include\stdio.h **** #define _IOB_ENTRIES 20
  30:C:/msys64/mingw64/include\stdio.h **** #define EOF (-1)
  31:C:/msys64/mingw64/include\stdio.h **** 
  32:C:/msys64/mingw64/include\stdio.h **** #ifndef _FILE_DEFINED
  33:C:/msys64/mingw64/include\stdio.h ****   struct _iobuf {
  34:C:/msys64/mingw64/include\stdio.h **** #ifdef _UCRT
  35:C:/msys64/mingw64/include\stdio.h ****     void *_Placeholder;
  36:C:/msys64/mingw64/include\stdio.h **** #else
  37:C:/msys64/mingw64/include\stdio.h ****     char *_ptr;
  38:C:/msys64/mingw64/include\stdio.h ****     int _cnt;
  39:C:/msys64/mingw64/include\stdio.h ****     char *_base;
  40:C:/msys64/mingw64/include\stdio.h ****     int _flag;
  41:C:/msys64/mingw64/include\stdio.h ****     int _file;
  42:C:/msys64/mingw64/include\stdio.h ****     int _charbuf;
  43:C:/msys64/mingw64/include\stdio.h ****     int _bufsiz;
  44:C:/msys64/mingw64/include\stdio.h ****     char *_tmpfname;
  45:C:/msys64/mingw64/include\stdio.h **** #endif
  46:C:/msys64/mingw64/include\stdio.h ****   };
  47:C:/msys64/mingw64/include\stdio.h ****   typedef struct _iobuf FILE;
  48:C:/msys64/mingw64/include\stdio.h **** #define _FILE_DEFINED
  49:C:/msys64/mingw64/include\stdio.h **** #endif
  50:C:/msys64/mingw64/include\stdio.h **** 
  51:C:/msys64/mingw64/include\stdio.h **** #ifdef _POSIX_
  52:C:/msys64/mingw64/include\stdio.h **** #define _P_tmpdir "/"
  53:C:/msys64/mingw64/include\stdio.h **** #define _wP_tmpdir L"/"
  54:C:/msys64/mingw64/include\stdio.h **** #else
  55:C:/msys64/mingw64/include\stdio.h **** #define _P_tmpdir "\\"
  56:C:/msys64/mingw64/include\stdio.h **** #define _wP_tmpdir L"\\"
  57:C:/msys64/mingw64/include\stdio.h **** #endif
  58:C:/msys64/mingw64/include\stdio.h **** 
  59:C:/msys64/mingw64/include\stdio.h **** #define L_tmpnam (sizeof(_P_tmpdir) + 12)
  60:C:/msys64/mingw64/include\stdio.h **** 
  61:C:/msys64/mingw64/include\stdio.h **** #ifdef _POSIX_
  62:C:/msys64/mingw64/include\stdio.h **** #define L_ctermid 9
  63:C:/msys64/mingw64/include\stdio.h **** #define L_cuserid 32
  64:C:/msys64/mingw64/include\stdio.h **** #endif
  65:C:/msys64/mingw64/include\stdio.h **** 
  66:C:/msys64/mingw64/include\stdio.h **** #define SEEK_CUR 1
  67:C:/msys64/mingw64/include\stdio.h **** #define SEEK_END 2
  68:C:/msys64/mingw64/include\stdio.h **** #define SEEK_SET 0
  69:C:/msys64/mingw64/include\stdio.h **** 
  70:C:/msys64/mingw64/include\stdio.h **** #define	STDIN_FILENO	0
  71:C:/msys64/mingw64/include\stdio.h **** #define	STDOUT_FILENO	1
  72:C:/msys64/mingw64/include\stdio.h **** #define	STDERR_FILENO	2
  73:C:/msys64/mingw64/include\stdio.h **** 
  74:C:/msys64/mingw64/include\stdio.h **** #define FILENAME_MAX 260
  75:C:/msys64/mingw64/include\stdio.h **** #define FOPEN_MAX 20
  76:C:/msys64/mingw64/include\stdio.h **** #define _SYS_OPEN 20
  77:C:/msys64/mingw64/include\stdio.h **** #define TMP_MAX 32767
  78:C:/msys64/mingw64/include\stdio.h **** 
  79:C:/msys64/mingw64/include\stdio.h **** #ifndef NULL
  80:C:/msys64/mingw64/include\stdio.h **** #ifdef __cplusplus
  81:C:/msys64/mingw64/include\stdio.h **** #ifndef _WIN64
  82:C:/msys64/mingw64/include\stdio.h **** #define NULL 0
  83:C:/msys64/mingw64/include\stdio.h **** #else
  84:C:/msys64/mingw64/include\stdio.h **** #define NULL 0LL
  85:C:/msys64/mingw64/include\stdio.h **** #endif  /* W64 */
  86:C:/msys64/mingw64/include\stdio.h **** #else
  87:C:/msys64/mingw64/include\stdio.h **** #define NULL ((void *)0)
  88:C:/msys64/mingw64/include\stdio.h **** #endif
  89:C:/msys64/mingw64/include\stdio.h **** #endif
  90:C:/msys64/mingw64/include\stdio.h **** 
  91:C:/msys64/mingw64/include\stdio.h **** #include <_mingw_off_t.h>
  92:C:/msys64/mingw64/include\stdio.h **** 
  93:C:/msys64/mingw64/include\stdio.h **** _CRTIMP FILE *__cdecl __acrt_iob_func(unsigned index);
  94:C:/msys64/mingw64/include\stdio.h **** #ifndef _STDIO_DEFINED
  95:C:/msys64/mingw64/include\stdio.h **** #ifdef _WIN64
  96:C:/msys64/mingw64/include\stdio.h ****   _CRTIMP FILE *__cdecl __iob_func(void);
  97:C:/msys64/mingw64/include\stdio.h **** #define _iob  __iob_func()
  98:C:/msys64/mingw64/include\stdio.h **** #else
  99:C:/msys64/mingw64/include\stdio.h **** #ifdef _MSVCRT_
 100:C:/msys64/mingw64/include\stdio.h **** extern FILE _iob[];	/* A pointer to an array of FILE */
 101:C:/msys64/mingw64/include\stdio.h **** #define __iob_func()	(_iob)
 102:C:/msys64/mingw64/include\stdio.h **** #else
 103:C:/msys64/mingw64/include\stdio.h **** extern FILE (* __MINGW_IMP_SYMBOL(_iob))[];	/* A pointer to an array of FILE */
 104:C:/msys64/mingw64/include\stdio.h **** #define __iob_func()	(* __MINGW_IMP_SYMBOL(_iob))
 105:C:/msys64/mingw64/include\stdio.h **** #define _iob __iob_func()
 106:C:/msys64/mingw64/include\stdio.h **** #endif
 107:C:/msys64/mingw64/include\stdio.h **** #endif
 108:C:/msys64/mingw64/include\stdio.h **** #endif
 109:C:/msys64/mingw64/include\stdio.h **** 
 110:C:/msys64/mingw64/include\stdio.h **** #ifndef _FPOS_T_DEFINED
 111:C:/msys64/mingw64/include\stdio.h **** #define _FPOS_T_DEFINED
 112:C:/msys64/mingw64/include\stdio.h **** #undef _FPOSOFF
 113:C:/msys64/mingw64/include\stdio.h **** 
 114:C:/msys64/mingw64/include\stdio.h **** #if (!defined(NO_OLDNAMES) || defined(__GNUC__))
 115:C:/msys64/mingw64/include\stdio.h ****   __MINGW_EXTENSION typedef __int64 fpos_t;
 116:C:/msys64/mingw64/include\stdio.h **** #define _FPOSOFF(fp) ((long)(fp))
 117:C:/msys64/mingw64/include\stdio.h **** #else
 118:C:/msys64/mingw64/include\stdio.h ****   __MINGW_EXTENSION typedef long long fpos_t;
 119:C:/msys64/mingw64/include\stdio.h **** #define _FPOSOFF(fp) ((long)(fp))
 120:C:/msys64/mingw64/include\stdio.h **** #endif
 121:C:/msys64/mingw64/include\stdio.h **** 
 122:C:/msys64/mingw64/include\stdio.h **** #endif
 123:C:/msys64/mingw64/include\stdio.h **** 
 124:C:/msys64/mingw64/include\stdio.h **** #ifndef _STDSTREAM_DEFINED
 125:C:/msys64/mingw64/include\stdio.h **** #define _STDSTREAM_DEFINED
 126:C:/msys64/mingw64/include\stdio.h **** 
 127:C:/msys64/mingw64/include\stdio.h **** #define stdin (__acrt_iob_func(0))
 128:C:/msys64/mingw64/include\stdio.h **** #define stdout (__acrt_iob_func(1))
 129:C:/msys64/mingw64/include\stdio.h **** #define stderr (__acrt_iob_func(2))
 130:C:/msys64/mingw64/include\stdio.h **** #endif
 131:C:/msys64/mingw64/include\stdio.h **** 
 132:C:/msys64/mingw64/include\stdio.h **** #define _IOFBF 0x0000
 133:C:/msys64/mingw64/include\stdio.h **** #define _IOLBF 0x0040
 134:C:/msys64/mingw64/include\stdio.h **** #define _IONBF 0x0004
 135:C:/msys64/mingw64/include\stdio.h **** 
 136:C:/msys64/mingw64/include\stdio.h **** #ifndef _UCRT
 137:C:/msys64/mingw64/include\stdio.h **** #define _IOREAD 0x0001
 138:C:/msys64/mingw64/include\stdio.h **** #define _IOWRT 0x0002
 139:C:/msys64/mingw64/include\stdio.h **** #define _IOMYBUF 0x0008
 140:C:/msys64/mingw64/include\stdio.h **** #define _IOEOF 0x0010
 141:C:/msys64/mingw64/include\stdio.h **** #define _IOERR 0x0020
 142:C:/msys64/mingw64/include\stdio.h **** #define _IOSTRG 0x0040
 143:C:/msys64/mingw64/include\stdio.h **** #define _IORW 0x0080
 144:C:/msys64/mingw64/include\stdio.h **** #ifdef _POSIX_
 145:C:/msys64/mingw64/include\stdio.h **** #define _IOAPPEND 0x0200
 146:C:/msys64/mingw64/include\stdio.h **** #endif
 147:C:/msys64/mingw64/include\stdio.h **** #endif
 148:C:/msys64/mingw64/include\stdio.h **** 
 149:C:/msys64/mingw64/include\stdio.h **** /* used with _set_output_format which is not present in ucrt */
 150:C:/msys64/mingw64/include\stdio.h **** #ifndef _UCRT
 151:C:/msys64/mingw64/include\stdio.h **** #define _TWO_DIGIT_EXPONENT 0x1
 152:C:/msys64/mingw64/include\stdio.h **** #endif
 153:C:/msys64/mingw64/include\stdio.h **** 
 154:C:/msys64/mingw64/include\stdio.h **** #if __MINGW_FORTIFY_LEVEL > 0
 155:C:/msys64/mingw64/include\stdio.h **** __mingw_bos_declare;
 156:C:/msys64/mingw64/include\stdio.h **** #endif
 157:C:/msys64/mingw64/include\stdio.h **** 
 158:C:/msys64/mingw64/include\stdio.h **** #ifndef _STDIO_DEFINED
 159:C:/msys64/mingw64/include\stdio.h **** extern
 160:C:/msys64/mingw64/include\stdio.h ****   __attribute__((__format__ (gnu_scanf, 2, 3))) __MINGW_ATTRIB_NONNULL(2)
 161:C:/msys64/mingw64/include\stdio.h ****   int __cdecl __mingw_sscanf(const char * __restrict__ _Src,const char * __restrict__ _Format,...);
 162:C:/msys64/mingw64/include\stdio.h **** extern
 163:C:/msys64/mingw64/include\stdio.h ****   __attribute__((__format__ (gnu_scanf, 2, 0))) __MINGW_ATTRIB_NONNULL(2)
 164:C:/msys64/mingw64/include\stdio.h ****   int __cdecl __mingw_vsscanf (const char * __restrict__ _Str,const char * __restrict__ Format,va_l
 165:C:/msys64/mingw64/include\stdio.h **** extern
 166:C:/msys64/mingw64/include\stdio.h ****   __attribute__((__format__ (gnu_scanf, 1, 2))) __MINGW_ATTRIB_NONNULL(1)
 167:C:/msys64/mingw64/include\stdio.h ****   int __cdecl __mingw_scanf(const char * __restrict__ _Format,...);
 168:C:/msys64/mingw64/include\stdio.h **** extern
 169:C:/msys64/mingw64/include\stdio.h ****   __attribute__((__format__ (gnu_scanf, 1, 0))) __MINGW_ATTRIB_NONNULL(1)
 170:C:/msys64/mingw64/include\stdio.h ****   int __cdecl __mingw_vscanf(const char * __restrict__ Format, va_list argp);
 171:C:/msys64/mingw64/include\stdio.h **** extern
 172:C:/msys64/mingw64/include\stdio.h ****   __attribute__((__format__ (gnu_scanf, 2, 3))) __MINGW_ATTRIB_NONNULL(2)
 173:C:/msys64/mingw64/include\stdio.h ****   int __cdecl __mingw_fscanf(FILE * __restrict__ _File,const char * __restrict__ _Format,...);
 174:C:/msys64/mingw64/include\stdio.h **** extern
 175:C:/msys64/mingw64/include\stdio.h ****   __attribute__((__format__ (gnu_scanf, 2, 0))) __MINGW_ATTRIB_NONNULL(2)
 176:C:/msys64/mingw64/include\stdio.h ****   int __cdecl __mingw_vfscanf (FILE * __restrict__ fp, const char * __restrict__ Format,va_list arg
 177:C:/msys64/mingw64/include\stdio.h **** 
 178:C:/msys64/mingw64/include\stdio.h **** extern
 179:C:/msys64/mingw64/include\stdio.h ****   __attribute__((__format__ (gnu_printf, 3, 0))) __MINGW_ATTRIB_NONNULL(3)
 180:C:/msys64/mingw64/include\stdio.h ****   int __cdecl __mingw_vsnprintf(char * __restrict__ _DstBuf,size_t _MaxCount,const char * __restric
 181:C:/msys64/mingw64/include\stdio.h ****                                va_list _ArgList);
 182:C:/msys64/mingw64/include\stdio.h **** extern
 183:C:/msys64/mingw64/include\stdio.h ****   __attribute__((__format__ (gnu_printf, 3, 4))) __MINGW_ATTRIB_NONNULL(3)
 184:C:/msys64/mingw64/include\stdio.h ****   int __cdecl __mingw_snprintf(char * __restrict__ s, size_t n, const char * __restrict__  format, 
 185:C:/msys64/mingw64/include\stdio.h **** extern
 186:C:/msys64/mingw64/include\stdio.h ****   __attribute__((__format__ (gnu_printf, 1, 2))) __MINGW_ATTRIB_NONNULL(1)
 187:C:/msys64/mingw64/include\stdio.h ****   int __cdecl __mingw_printf(const char * __restrict__ , ... ) __MINGW_NOTHROW;
 188:C:/msys64/mingw64/include\stdio.h **** extern
 189:C:/msys64/mingw64/include\stdio.h ****   __attribute__((__format__ (gnu_printf, 1, 0))) __MINGW_ATTRIB_NONNULL(1)
 190:C:/msys64/mingw64/include\stdio.h ****   int __cdecl __mingw_vprintf (const char * __restrict__ , va_list) __MINGW_NOTHROW;
 191:C:/msys64/mingw64/include\stdio.h **** extern
 192:C:/msys64/mingw64/include\stdio.h ****   __attribute__((__format__ (gnu_printf, 2, 3))) __MINGW_ATTRIB_NONNULL(2)
 193:C:/msys64/mingw64/include\stdio.h ****   int __cdecl __mingw_fprintf (FILE * __restrict__ , const char * __restrict__ , ...) __MINGW_NOTHR
 194:C:/msys64/mingw64/include\stdio.h **** extern
 195:C:/msys64/mingw64/include\stdio.h ****   __attribute__((__format__ (gnu_printf, 2, 0))) __MINGW_ATTRIB_NONNULL(2)
 196:C:/msys64/mingw64/include\stdio.h ****   int __cdecl __mingw_vfprintf (FILE * __restrict__ , const char * __restrict__ , va_list) __MINGW_
 197:C:/msys64/mingw64/include\stdio.h **** extern
 198:C:/msys64/mingw64/include\stdio.h ****   __attribute__((__format__ (gnu_printf, 2, 3))) __MINGW_ATTRIB_NONNULL(2)
 199:C:/msys64/mingw64/include\stdio.h ****   int __cdecl __mingw_sprintf (char * __restrict__ , const char * __restrict__ , ...) __MINGW_NOTHR
 200:C:/msys64/mingw64/include\stdio.h **** extern
 201:C:/msys64/mingw64/include\stdio.h ****   __attribute__((__format__ (gnu_printf, 2, 0))) __MINGW_ATTRIB_NONNULL(2)
 202:C:/msys64/mingw64/include\stdio.h ****   int __cdecl __mingw_vsprintf (char * __restrict__ , const char * __restrict__ , va_list) __MINGW_
 203:C:/msys64/mingw64/include\stdio.h **** extern
 204:C:/msys64/mingw64/include\stdio.h ****   __attribute__((__format__ (gnu_printf, 2, 3))) __attribute__((nonnull (1,2)))
 205:C:/msys64/mingw64/include\stdio.h ****   int __cdecl __mingw_asprintf(char ** __restrict__ , const char * __restrict__ , ...) __MINGW_NOTH
 206:C:/msys64/mingw64/include\stdio.h **** extern
 207:C:/msys64/mingw64/include\stdio.h ****   __attribute__((__format__ (gnu_printf, 2, 0))) __attribute__((nonnull (1,2)))
 208:C:/msys64/mingw64/include\stdio.h ****   int __cdecl __mingw_vasprintf(char ** __restrict__ , const char * __restrict__ , va_list) __MINGW
 209:C:/msys64/mingw64/include\stdio.h **** 
 210:C:/msys64/mingw64/include\stdio.h **** extern
 211:C:/msys64/mingw64/include\stdio.h ****   __attribute__((__format__ (ms_scanf, 2, 3))) __MINGW_ATTRIB_NONNULL(2)
 212:C:/msys64/mingw64/include\stdio.h ****   int __cdecl __ms_sscanf(const char * __restrict__ _Src,const char * __restrict__ _Format,...);
 213:C:/msys64/mingw64/include\stdio.h **** extern
 214:C:/msys64/mingw64/include\stdio.h ****   __attribute__((__format__ (ms_scanf, 1, 2))) __MINGW_ATTRIB_NONNULL(1)
 215:C:/msys64/mingw64/include\stdio.h ****   int __cdecl __ms_scanf(const char * __restrict__ _Format,...);
 216:C:/msys64/mingw64/include\stdio.h **** extern
 217:C:/msys64/mingw64/include\stdio.h ****   __attribute__((__format__ (ms_scanf, 2, 3))) __MINGW_ATTRIB_NONNULL(2)
 218:C:/msys64/mingw64/include\stdio.h ****   int __cdecl __ms_fscanf(FILE * __restrict__ _File,const char * __restrict__ _Format,...);
 219:C:/msys64/mingw64/include\stdio.h **** 
 220:C:/msys64/mingw64/include\stdio.h **** extern
 221:C:/msys64/mingw64/include\stdio.h ****   __attribute__((__format__ (ms_printf, 1, 2))) __MINGW_ATTRIB_NONNULL(1)
 222:C:/msys64/mingw64/include\stdio.h ****   int __cdecl __ms_printf(const char * __restrict__ , ... ) __MINGW_NOTHROW;
 223:C:/msys64/mingw64/include\stdio.h **** extern
 224:C:/msys64/mingw64/include\stdio.h ****   __attribute__((__format__ (ms_printf, 1, 0))) __MINGW_ATTRIB_NONNULL(1)
 225:C:/msys64/mingw64/include\stdio.h ****   int __cdecl __ms_vprintf (const char * __restrict__ , va_list) __MINGW_NOTHROW;
 226:C:/msys64/mingw64/include\stdio.h **** extern
 227:C:/msys64/mingw64/include\stdio.h ****   __attribute__((__format__ (ms_printf, 2, 3))) __MINGW_ATTRIB_NONNULL(2)
 228:C:/msys64/mingw64/include\stdio.h ****   int __cdecl __ms_fprintf (FILE * __restrict__ , const char * __restrict__ , ...) __MINGW_NOTHROW;
 229:C:/msys64/mingw64/include\stdio.h **** extern
 230:C:/msys64/mingw64/include\stdio.h ****   __attribute__((__format__ (ms_printf, 2, 0))) __MINGW_ATTRIB_NONNULL(2)
 231:C:/msys64/mingw64/include\stdio.h ****   int __cdecl __ms_vfprintf (FILE * __restrict__ , const char * __restrict__ , va_list) __MINGW_NOT
 232:C:/msys64/mingw64/include\stdio.h **** extern
 233:C:/msys64/mingw64/include\stdio.h ****   __attribute__((__format__ (ms_printf, 2, 3))) __MINGW_ATTRIB_NONNULL(2)
 234:C:/msys64/mingw64/include\stdio.h ****   int __cdecl __ms_sprintf (char * __restrict__ , const char * __restrict__ , ...) __MINGW_NOTHROW;
 235:C:/msys64/mingw64/include\stdio.h **** extern
 236:C:/msys64/mingw64/include\stdio.h ****   __attribute__((__format__ (ms_printf, 2, 0))) __MINGW_ATTRIB_NONNULL(2)
 237:C:/msys64/mingw64/include\stdio.h ****   int __cdecl __ms_vsprintf (char * __restrict__ , const char * __restrict__ , va_list) __MINGW_NOT
 238:C:/msys64/mingw64/include\stdio.h **** 
 239:C:/msys64/mingw64/include\stdio.h **** #ifdef _UCRT
 240:C:/msys64/mingw64/include\stdio.h ****   int __cdecl __stdio_common_vsprintf(unsigned __int64 options, char *str, size_t len, const char *
 241:C:/msys64/mingw64/include\stdio.h ****   int __cdecl __stdio_common_vfprintf(unsigned __int64 options, FILE *file, const char *format, _lo
 242:C:/msys64/mingw64/include\stdio.h ****   int __cdecl __stdio_common_vsscanf(unsigned __int64 options, const char *input, size_t length, co
 243:C:/msys64/mingw64/include\stdio.h ****   int __cdecl __stdio_common_vfscanf(unsigned __int64 options, FILE *file, const char *format, _loc
 244:C:/msys64/mingw64/include\stdio.h **** #endif
 245:C:/msys64/mingw64/include\stdio.h **** 
 246:C:/msys64/mingw64/include\stdio.h **** #undef __MINGW_PRINTF_FORMAT
 247:C:/msys64/mingw64/include\stdio.h **** #undef __MINGW_SCANF_FORMAT
 248:C:/msys64/mingw64/include\stdio.h **** 
 249:C:/msys64/mingw64/include\stdio.h **** #if defined(__clang__)
 250:C:/msys64/mingw64/include\stdio.h **** #define __MINGW_PRINTF_FORMAT printf
 251:C:/msys64/mingw64/include\stdio.h **** #define __MINGW_SCANF_FORMAT  scanf
 252:C:/msys64/mingw64/include\stdio.h **** #elif defined(_UCRT) || __USE_MINGW_ANSI_STDIO
 253:C:/msys64/mingw64/include\stdio.h **** #define __MINGW_PRINTF_FORMAT gnu_printf
 254:C:/msys64/mingw64/include\stdio.h **** #define __MINGW_SCANF_FORMAT  gnu_scanf
 255:C:/msys64/mingw64/include\stdio.h **** #else
 256:C:/msys64/mingw64/include\stdio.h **** #define __MINGW_PRINTF_FORMAT ms_printf
 257:C:/msys64/mingw64/include\stdio.h **** #define __MINGW_SCANF_FORMAT  ms_scanf
 258:C:/msys64/mingw64/include\stdio.h **** #endif
 259:C:/msys64/mingw64/include\stdio.h **** 
 260:C:/msys64/mingw64/include\stdio.h **** #if __USE_MINGW_ANSI_STDIO && !defined(_CRTBLD)
 261:C:/msys64/mingw64/include\stdio.h **** /*
 262:C:/msys64/mingw64/include\stdio.h ****  * User has expressed a preference for C99 conformance...
 263:C:/msys64/mingw64/include\stdio.h ****  */
 264:C:/msys64/mingw64/include\stdio.h **** 
 265:C:/msys64/mingw64/include\stdio.h **** #ifdef _GNU_SOURCE
 266:C:/msys64/mingw64/include\stdio.h **** __mingw_ovr
 267:C:/msys64/mingw64/include\stdio.h **** __attribute__ ((__format__ (gnu_printf, 2, 3))) __attribute__((nonnull (1,2)))
 268:C:/msys64/mingw64/include\stdio.h **** int asprintf(char **__ret, const char *__format, ...)
 269:C:/msys64/mingw64/include\stdio.h **** {
 270:C:/msys64/mingw64/include\stdio.h ****   int __retval;
 271:C:/msys64/mingw64/include\stdio.h ****   __builtin_va_list __local_argv; __builtin_va_start( __local_argv, __format );
 272:C:/msys64/mingw64/include\stdio.h ****   __retval = __mingw_vasprintf( __ret, __format, __local_argv );
 273:C:/msys64/mingw64/include\stdio.h ****   __builtin_va_end( __local_argv );
 274:C:/msys64/mingw64/include\stdio.h ****   return __retval;
 275:C:/msys64/mingw64/include\stdio.h **** }
 276:C:/msys64/mingw64/include\stdio.h **** 
 277:C:/msys64/mingw64/include\stdio.h **** __mingw_ovr
 278:C:/msys64/mingw64/include\stdio.h **** __attribute__ ((__format__ (gnu_printf, 2, 0))) __attribute__((nonnull (1,2)))
 279:C:/msys64/mingw64/include\stdio.h **** int vasprintf(char **__ret, const char *__format, __builtin_va_list __local_argv)
 280:C:/msys64/mingw64/include\stdio.h **** {
 281:C:/msys64/mingw64/include\stdio.h ****   return __mingw_vasprintf( __ret, __format, __local_argv );
 282:C:/msys64/mingw64/include\stdio.h **** }
 283:C:/msys64/mingw64/include\stdio.h **** #endif /* _GNU_SOURCE */
 284:C:/msys64/mingw64/include\stdio.h **** 
 285:C:/msys64/mingw64/include\stdio.h **** /* There seems to be a bug about builtins and static overrides of them
 286:C:/msys64/mingw64/include\stdio.h ****    in g++.  So we need to do here some trickery.  */
 287:C:/msys64/mingw64/include\stdio.h **** #ifdef __cplusplus
 288:C:/msys64/mingw64/include\stdio.h **** extern "C++" {
 289:C:/msys64/mingw64/include\stdio.h **** #endif
 290:C:/msys64/mingw64/include\stdio.h **** 
 291:C:/msys64/mingw64/include\stdio.h **** __mingw_ovr
 292:C:/msys64/mingw64/include\stdio.h **** __attribute__((__format__ (gnu_scanf, 2, 3))) __MINGW_ATTRIB_NONNULL(2)
 293:C:/msys64/mingw64/include\stdio.h **** int sscanf(const char *__source, const char *__format, ...)
 294:C:/msys64/mingw64/include\stdio.h **** {
 295:C:/msys64/mingw64/include\stdio.h ****   int __retval;
 296:C:/msys64/mingw64/include\stdio.h ****   __builtin_va_list __local_argv; __builtin_va_start( __local_argv, __format );
 297:C:/msys64/mingw64/include\stdio.h ****   __retval = __mingw_vsscanf( __source, __format, __local_argv );
 298:C:/msys64/mingw64/include\stdio.h ****   __builtin_va_end( __local_argv );
 299:C:/msys64/mingw64/include\stdio.h ****   return __retval;
 300:C:/msys64/mingw64/include\stdio.h **** }
 301:C:/msys64/mingw64/include\stdio.h **** 
 302:C:/msys64/mingw64/include\stdio.h **** __mingw_ovr
 303:C:/msys64/mingw64/include\stdio.h **** __attribute__((__format__ (gnu_scanf, 1, 2))) __MINGW_ATTRIB_NONNULL(1)
 304:C:/msys64/mingw64/include\stdio.h **** int scanf(const char *__format, ...)
 305:C:/msys64/mingw64/include\stdio.h **** {
 306:C:/msys64/mingw64/include\stdio.h ****   int __retval;
 307:C:/msys64/mingw64/include\stdio.h ****   __builtin_va_list __local_argv; __builtin_va_start( __local_argv, __format );
 308:C:/msys64/mingw64/include\stdio.h ****   __retval = __mingw_vfscanf( stdin, __format, __local_argv );
 309:C:/msys64/mingw64/include\stdio.h ****   __builtin_va_end( __local_argv );
 310:C:/msys64/mingw64/include\stdio.h ****   return __retval;
 311:C:/msys64/mingw64/include\stdio.h **** }
 312:C:/msys64/mingw64/include\stdio.h **** 
 313:C:/msys64/mingw64/include\stdio.h **** __mingw_ovr
 314:C:/msys64/mingw64/include\stdio.h **** __attribute__((__format__ (gnu_scanf, 2, 3))) __MINGW_ATTRIB_NONNULL(2)
 315:C:/msys64/mingw64/include\stdio.h **** int fscanf(FILE *__stream, const char *__format, ...)
 316:C:/msys64/mingw64/include\stdio.h **** {
 317:C:/msys64/mingw64/include\stdio.h ****   int __retval;
 318:C:/msys64/mingw64/include\stdio.h ****   __builtin_va_list __local_argv; __builtin_va_start( __local_argv, __format );
 319:C:/msys64/mingw64/include\stdio.h ****   __retval = __mingw_vfscanf( __stream, __format, __local_argv );
 320:C:/msys64/mingw64/include\stdio.h ****   __builtin_va_end( __local_argv );
 321:C:/msys64/mingw64/include\stdio.h ****   return __retval;
 322:C:/msys64/mingw64/include\stdio.h **** }
 323:C:/msys64/mingw64/include\stdio.h **** 
 324:C:/msys64/mingw64/include\stdio.h **** #ifndef __NO_ISOCEXT  /* externs in libmingwex.a */
 325:C:/msys64/mingw64/include\stdio.h **** #ifdef __GNUC__
 326:C:/msys64/mingw64/include\stdio.h **** #pragma GCC diagnostic push
 327:C:/msys64/mingw64/include\stdio.h **** #pragma GCC diagnostic ignored "-Wshadow"
 328:C:/msys64/mingw64/include\stdio.h **** #endif
 329:C:/msys64/mingw64/include\stdio.h **** 
 330:C:/msys64/mingw64/include\stdio.h **** __mingw_ovr
 331:C:/msys64/mingw64/include\stdio.h **** __attribute__((__format__ (gnu_scanf, 2, 0))) __MINGW_ATTRIB_NONNULL(2)
 332:C:/msys64/mingw64/include\stdio.h **** int vsscanf (const char *__source, const char *__format, __builtin_va_list __local_argv)
 333:C:/msys64/mingw64/include\stdio.h **** {
 334:C:/msys64/mingw64/include\stdio.h ****   return __mingw_vsscanf( __source, __format, __local_argv );
 335:C:/msys64/mingw64/include\stdio.h **** }
 336:C:/msys64/mingw64/include\stdio.h **** 
 337:C:/msys64/mingw64/include\stdio.h **** __mingw_ovr
 338:C:/msys64/mingw64/include\stdio.h **** __attribute__((__format__ (gnu_scanf, 1, 0))) __MINGW_ATTRIB_NONNULL(1)
 339:C:/msys64/mingw64/include\stdio.h **** int vscanf(const char *__format,  __builtin_va_list __local_argv)
 340:C:/msys64/mingw64/include\stdio.h **** {
 341:C:/msys64/mingw64/include\stdio.h ****   return __mingw_vfscanf( stdin, __format, __local_argv );
 342:C:/msys64/mingw64/include\stdio.h **** }
 343:C:/msys64/mingw64/include\stdio.h **** 
 344:C:/msys64/mingw64/include\stdio.h **** __mingw_ovr
 345:C:/msys64/mingw64/include\stdio.h **** __attribute__((__format__ (gnu_scanf, 2, 0))) __MINGW_ATTRIB_NONNULL(2)
 346:C:/msys64/mingw64/include\stdio.h **** int vfscanf (FILE *__stream,  const char *__format, __builtin_va_list __local_argv)
 347:C:/msys64/mingw64/include\stdio.h **** {
 348:C:/msys64/mingw64/include\stdio.h ****   return __mingw_vfscanf( __stream, __format, __local_argv );
 349:C:/msys64/mingw64/include\stdio.h **** }
 350:C:/msys64/mingw64/include\stdio.h **** 
 351:C:/msys64/mingw64/include\stdio.h **** #ifdef __GNUC__
 352:C:/msys64/mingw64/include\stdio.h **** #pragma GCC diagnostic pop
 353:C:/msys64/mingw64/include\stdio.h **** #endif
 354:C:/msys64/mingw64/include\stdio.h **** #endif /* __NO_ISOCEXT */
 355:C:/msys64/mingw64/include\stdio.h **** 
 356:C:/msys64/mingw64/include\stdio.h **** 
 357:C:/msys64/mingw64/include\stdio.h **** 
 358:C:/msys64/mingw64/include\stdio.h **** __mingw_ovr
 359:C:/msys64/mingw64/include\stdio.h **** __attribute__((__format__ (gnu_printf, 2, 3))) __MINGW_ATTRIB_NONNULL(2)
 360:C:/msys64/mingw64/include\stdio.h **** int fprintf (FILE *__stream, const char *__format, ...)
 361:C:/msys64/mingw64/include\stdio.h **** {
 362:C:/msys64/mingw64/include\stdio.h ****   int __retval;
 363:C:/msys64/mingw64/include\stdio.h ****   __builtin_va_list __local_argv; __builtin_va_start( __local_argv, __format );
 364:C:/msys64/mingw64/include\stdio.h ****   __retval = __mingw_vfprintf( __stream, __format, __local_argv );
 365:C:/msys64/mingw64/include\stdio.h ****   __builtin_va_end( __local_argv );
 366:C:/msys64/mingw64/include\stdio.h ****   return __retval;
 367:C:/msys64/mingw64/include\stdio.h **** }
 368:C:/msys64/mingw64/include\stdio.h **** 
 369:C:/msys64/mingw64/include\stdio.h **** __mingw_ovr
 370:C:/msys64/mingw64/include\stdio.h **** __attribute__((__format__ (gnu_printf, 1, 2))) __MINGW_ATTRIB_NONNULL(1)
 371:C:/msys64/mingw64/include\stdio.h **** int printf (const char *__format, ...)
 372:C:/msys64/mingw64/include\stdio.h **** {
  16              		.loc 1 372 1
  17              		.cfi_startproc
  18 0000 55       		pushq	%rbp	 #
  19              		.seh_pushreg	%rbp
  20              		.cfi_def_cfa_offset 16
  21              		.cfi_offset 6, -16
  22 0001 53       		pushq	%rbx	 #
  23              		.seh_pushreg	%rbx
  24              		.cfi_def_cfa_offset 24
  25              		.cfi_offset 3, -24
  26 0002 4883EC38 		subq	$56, %rsp	 #,
  27              		.seh_stackalloc	56
  28              		.cfi_def_cfa_offset 80
  29 0006 488D6C24 		leaq	48(%rsp), %rbp	 #,
  29      30
  30              		.seh_setframe	%rbp, 48
  31              		.cfi_def_cfa 6, 32
  32              		.seh_endprologue
  33 000b 48894D20 		movq	%rcx, 32(%rbp)	 # __format, __format
  34 000f 48895528 		movq	%rdx, 40(%rbp)	 #,
  35 0013 4C894530 		movq	%r8, 48(%rbp)	 #,
  36 0017 4C894D38 		movq	%r9, 56(%rbp)	 #,
  37              	 # C:/msys64/mingw64/include/stdio.h:374:   __builtin_va_list __local_argv; __builtin_va_start( __l
 373:C:/msys64/mingw64/include\stdio.h ****   int __retval;
 374:C:/msys64/mingw64/include\stdio.h ****   __builtin_va_list __local_argv; __builtin_va_start( __local_argv, __format );
  38              		.loc 1 374 35
  39 001b 488D4528 		leaq	40(%rbp), %rax	 #, tmp86
  40 001f 488945F0 		movq	%rax, -16(%rbp)	 # tmp86, MEM[(char * *)&__local_argv]
  41              	 # C:/msys64/mingw64/include/stdio.h:375:   __retval = __mingw_vfprintf( stdout, __format, __local_
 375:C:/msys64/mingw64/include\stdio.h ****   __retval = __mingw_vfprintf( stdout, __format, __local_argv );
  42              		.loc 1 375 14
  43 0023 488B5DF0 		movq	-16(%rbp), %rbx	 # __local_argv, __local_argv.0_1
  44 0027 B9010000 		movl	$1, %ecx	 #,
  44      00
  45 002c 488B0500 		movq	__imp___acrt_iob_func(%rip), %rax	 #, tmp87
  45      000000
  46 0033 FFD0     		call	*%rax	 # tmp87
  47              	.LVL0:
  48 0035 4889C1   		movq	%rax, %rcx	 #, _2
  49              	 # C:/msys64/mingw64/include/stdio.h:375:   __retval = __mingw_vfprintf( stdout, __format, __local_
  50              		.loc 1 375 14 is_stmt 0 discriminator 1
  51 0038 488B4520 		movq	32(%rbp), %rax	 # __format, tmp88
  52 003c 4989D8   		movq	%rbx, %r8	 # __local_argv.0_1,
  53 003f 4889C2   		movq	%rax, %rdx	 # tmp88,
  54 0042 E8000000 		call	__mingw_vfprintf	 #
  54      00
  55 0047 8945FC   		movl	%eax, -4(%rbp)	 # tmp89, __retval
  56              	 # C:/msys64/mingw64/include/stdio.h:377:   return __retval;
 376:C:/msys64/mingw64/include\stdio.h ****   __builtin_va_end( __local_argv );
 377:C:/msys64/mingw64/include\stdio.h ****   return __retval;
  57              		.loc 1 377 10 is_stmt 1
  58 004a 8B45FC   		movl	-4(%rbp), %eax	 # __retval, _10
  59              	 # C:/msys64/mingw64/include/stdio.h:378: }
 378:C:/msys64/mingw64/include\stdio.h **** }
  60              		.loc 1 378 1
  61 004d 4883C438 		addq	$56, %rsp	 #,
  62 0051 5B       		popq	%rbx	 #
  63              		.cfi_restore 3
  64 0052 5D       		popq	%rbp	 #
  65              		.cfi_restore 6
  66              		.cfi_def_cfa 7, -40
  67 0053 C3       		ret	
  68              		.cfi_endproc
  69              	.LFE9:
  70              		.seh_endproc
  72              		.section .rdata,"dr"
  73              	.LC0:
  74 0000 68656C6C 		.ascii "hello, world!\12\0"
  74      6F2C2077 
  74      6F726C64 
  74      210A00
  75 000f 00       		.text
  76              		.globl	main
  78              		.seh_proc	main
  79              	main:
  80              	.LFB30:
  81              		.file 2 "index.c"
   1:index.c       **** #include <stdio.h>
   2:index.c       **** 
   3:index.c       **** int main() {
  82              		.loc 2 3 12
  83              		.cfi_startproc
  84 0054 55       		pushq	%rbp	 #
  85              		.seh_pushreg	%rbp
  86              		.cfi_def_cfa_offset 16
  87              		.cfi_offset 6, -16
  88 0055 4889E5   		movq	%rsp, %rbp	 #,
  89              		.seh_setframe	%rbp, 0
  90              		.cfi_def_cfa_register 6
  91 0058 4883EC20 		subq	$32, %rsp	 #,
  92              		.seh_stackalloc	32
  93              		.seh_endprologue
  94              	 # index.c:3: int main() {
  95              		.loc 2 3 12
  96 005c E8000000 		call	__main	 #
  96      00
  97              	 # index.c:4:     printf("hello, world!\n");
   4:index.c       ****     printf("hello, world!\n");
  98              		.loc 2 4 5
  99 0061 488D0500 		leaq	.LC0(%rip), %rax	 #, tmp84
  99      000000
 100 0068 4889C1   		movq	%rax, %rcx	 # tmp84,
 101 006b E890FFFF 		call	printf	 #
 101      FF
 102              	 # index.c:5:     return 0;
   5:index.c       ****     return 0;
 103              		.loc 2 5 12
 104 0070 B8000000 		movl	$0, %eax	 #, _3
 104      00
 105              	 # index.c:6: }
   6:index.c       **** }
 106              		.loc 2 6 1
 107 0075 4883C420 		addq	$32, %rsp	 #,
 108 0079 5D       		popq	%rbp	 #
 109              		.cfi_restore 6
 110              		.cfi_def_cfa 7, 8
 111 007a C3       		ret	
 112              		.cfi_endproc
 113              	.LFE30:
 114              		.seh_endproc
 115              	.Letext0:
 116              		.file 3 "C:/msys64/mingw64/include/vadefs.h"